(lp0
S'UDBUUDRRFLFDBLLFURLLBBFFLRFBUDDRBLFRRRBBBLUDFDUUFDLDRU'
p1
aS'BDBDUUBDRRRUULFULDFFLUFBLRRFBDFRLRLULDFLBBFBUDFLUDRBRD'
p2
aS'BRFRUUDFDBRUULDFLDLBLLFBUFFLLLBRDRRRRFRFBBFUUDLUDDDBUB'
p3
aS'BRDFUDBBDLUFRLDLULFBUDFRDLUBFRBRLFDBRLFFBURBUUUDFDLRRL'
p4
aS'RLDUUDLBUFFRDLURRFFBDUFFDLBLFDBRURDBBRULBFLRULBUDDRBLF'
p5
aS'BDFRUBDRRDLLULLFRLDFUDFBRLRBBFDRDUFBUULUBRULRBFLUDBFFD'
p6
aS'DFUDUFBFBDLFLLLFRLUBBUFLLDRBRDBRURBULBFDBFRDDLURRDRFUU'
p7
aS'FUFBURDDBBRDLLLBLULFLUFDBURUBFRRLFDRLFUDBFDFURBDUDRRBL'
p8
aS'FFLFURRLULDFFLRRUUDBLRFUBDDLFBLRBRDRDLUDBUBBFBLFRDBUUD'
p9
aS'UDLDUFDBBLBBRLRDRFFURBFLBBBRDRFRUFFDULDDBLLLLFFRUDRUUU'
p10
aS'DBDLUFUBLLLFLLRBFLRDBLFFBRFDDRURDUUURDDRBUBBFFUURDBLFR'
p11
aS'LRLFULLBRRUDFLDRBUDUBLFRUFFRLUDRDLRBBFDBBUUBFBDFRDUDLF'
p12
aS'DLBDULRBUBBDFLUFRLLUBBFRRFUDDFURLLDBRUUDBFLBFRRULDRDFF'
p13
aS'DRUFUULLLFRFFLDFDLUFBUFRRFDBUFDRBRDULBDLBBBBURLRUDRBLD'
p14
aS'RFDFURDLRLLLDLRBDFRBDUFDBBLURBFRUDBUFBFDBUFURULURDFBLL'
p15
aS'RFBBULRDLDURULLBDDLFBLFDLBUURFRRRLDDURRUBFFLBFBDUDBUFF'
p16
aS'UFBDUUDUFDBLRLRDBRRLBBFRFDRLFFURFLDRDUFRBFULBLBBLDDULU'
p17
aS'RRDDURLFRLULRLUFUBULULFLBRBUBDBRDBFFFBFDBDDUDUFRBDFRLL'
p18
aS'LURLUFBDBURDBLFUFDFRFRFBBDULBRLRFLLRFUFLBUDUBRRLBDDUDD'
p19
aS'BRUFUDDBRDBLRLDFFRULDUFDLBFDLLURUURBBDRLBRUFFFBRUDLLFB'
p20
aS'UUUUUFLDBRLBLLBRRLDFFFFRDBBRLDURBLRLRDULBDUBFFUFRDDDFB'
p21
aS'DBLFULRRLRUBRLDFDRLLFBFDRRUUDFFRUBBDUFDBBUFULBFULDRDLB'
p22
aS'BFDLURDDDDBFULLRDLFFURFURFLURBBRLUUFRRBUBLLFFRBUBDDLDB'
p23
aS'LFDFULBBBUBRULUDFFLDUFFRDBDFLLRRRURLBDRUBLUURBBFDDLFDR'
p24
aS'RBLDUUBBLBRURLRBUDULBDFLFDDRFLURDFLDFUUFBLFBURFLFDRRBD'
p25
aS'FBDFULDRFFUBDLLRURBBUFFDURFBULLRBUUULFDDBDLLLRRDBDRBFR'
p26
aS'LDUDUBRBLRLBULBDRULDBUFFUBFFRDRRLBDBRFUUBLDLDFFFUDRRFL'
p27
aS'UBBDURRULDFLDLUDDBFFLFFLUDDBBBFRRRLFDUFBBLUBFLRRUDRULR'
p28
aS'RDFDUDDBFRBUULLUDFLRDUFFRLFBBLLRUDFURRBBBFLLBURBRDFLUD'
p29
aS'BLRBUDLRFFBBBLURFLDDUBFRUDBFLDFRUUFRDDLRBLUUBDUFFDLRRL'
p30
aS'BBBFULUBBFBRDLRFURUFDDFLBRLLDFRRUFBLULDUBUUDDRFRRDLLFD'
p31
aS'BULFUULBRDUBBLLBDDDBLDFRUDFRRULRLDLBUFRRBBUDLFRRUDFFFF'
p32
aS'FUDBUFDDRBLFULFRDLFBDFFLBLLRDBLRRFUDRULRBRBBLURUBDDUFU'
p33
aS'URLRUBDBRULDFLFFLRDBBFFDUFRFUFURRDDUBUBDBUFLRLLLRDDBBL'
p34
aS'LDDDURBDFDFLULBLRBBUDFFLFBUULRURRRLUFRRBBFLFBFLUDDUDBR'
p35
aS'BFDFUUDBFBLFRLDFBULLRLFLLFBDRRURRDBRRDLFBUUDLUDURDUFBB'
p36
aS'UBDBUFDBFBDFLLLDUFRRRBFDFULDLBLRRUFURRLUBRLDBUFBFDURDL'
p37
aS'BFRLUFLBBFLUBLDFFRRLDUFBUFURUBDRRDDDBUURBDLLLLUDRDRFBF'
p38
aS'FLDLURDBUDUFBLDLDLURDUFBBULULBFRUFRRRRBBBFBFURDFDDFRLL'
p39
aS'DDFDURURFUDRRLBLUFDFLLFRRURBLBFRBBLRDLLUBBUFUFFBUDBLDD'
p40
aS'BFLUUURBULBDRLRLBUFDRLFFDDUFFFDRURFBBRFRBLLLBUDDBDUDLR'
p41
aS'BLRUUBLLDFRFLLULBRFDDDFRRFBUDDDRBBBRUFURBUFUULFDFDRLLB'
p42
aS'BLBRUDRFFDRDDLFUBLFLURFUFLBDUUURUFBDRFLLBBRDUBFLRDDRBL'
p43
aS'UFDUUBBBRLLFFLRURFFDRFFBLURDRDLRLLBBRUURBLUDFBULFDDDDB'
p44
aS'BUUFUDUBLBBFRLRFBRULDUFDFRBDFLURURLBLRUBBDDFDRDRLDFFLL'
p45
aS'UFDUUBDDDURRRLRLDFFFRLFRFURLLFBRBULLBDRLBUBFLBBDFDDBUU'
p46
aS'BBLDUFFUUUDUFLRRFDBULDFLRULULDFRRDBBFRFLBBLLFRDDUDBRRB'
p47
aS'FLDDUUBRUFRFLLBBLLLUDDFBBDRURDURBURRRFUFBFBURLFDDDLFBL'
p48
aS'FFRFUFULBRDDULRLRRBUUUFDFLRDDBURBLRDFBDLBDLBUBBURDLFFL'
p49
aS'BUFLUUBRLFDLLLLLBUBURUFDDDRLBDRRFURBUFDFBLDDRRFUBDRFBF'
p50
aS'LUDDUBBDUBLBLLRFDDRRFRFLULLFUUDRFDRFLBUUBFRBRRFDUDFBBL'
p51
aS'LFBRUBFBUBFDLLLFBFURUDFURULDBDRRLURBRUDDBLLDBLURDDFRFF'
p52
aS'DDFRURBURFDURLFLLFBFLBFUBBDDULFRLLUBRLDDBDUFURBUBDLFRR'
p53
aS'FULUUDFFUDBDRLLBDRRFUDFRBLUDBLBRLDFBBDRRBFLULFBURDLFUR'
p54
aS'LUULULRRFFLBULFLDUUFBFFDFDDDBBDRBLLRRFDBBUUUDRRFBDRBRL'
p55
aS'RFLBULDRDBDUFLULBDFDBUFURULFRBRRBBFRFLLBBDFLRUDDRDLUFU'
p56
aS'LRURUULLRLBBULDDBBFLDUFFUDUFFBURFDBURDDBBLFRRFLRDDRBFL'
p57
aS'DLRUUBRDUFRURLBDLFBULFFRRFUBDFLRBDLBBFURBBLFFLDLUDURDD'
p58
aS'BUUFUFULRFFBLLRDBRLRDBFLLDFDBRRRBLUFRRUDBUDFBLDFLDUUDB'
p59
aS'LLBRULFFBDUUDLBRRBUBDLFDFDLLBDFRUUFRLBRUBRDRRFFBUDDFLU'
p60
aS'RBRDUUBLFFBDULDDRUBFFLFFULRBDDRRBULUFRLFBULFLDBLRDUBDR'
p61
aS'ULUFULFFFRDBLLBLRFDURDFUBDUURLFRDDULRLDFBRDBFBUBBDBRRL'
p62
aS'BLDRUUBBRUFFULBDULBLUFFBFRUDDRDRDLDDRRFBBRBFURFLUDLFLL'
p63
aS'RUUBUBBFFURFLLFBDFRBDLFRBDLLFUDRRDBLLUFUBLDLRRUUDDFBRD'
p64
aS'RBRFUDLBLFLBRLDFBBUUULFURFBDLDRRLLRUDDLFBRBUUDDRFDUFBF'
p65
aS'RURFURUBFDFFDLBLDBUFUDFRRUBDLLLRLLFLUUBBBUDLDRRFRDBBDF'
p66
aS'DFLFULDRFRUBDLUDRBBBRLFRRUFFLLBRDUFDURBDBBRDFUBLLDFLUU'
p67
aS'RFDDULDRFLURBLDBLURUFRFLFFLLRBFRBULDBBDFBRRBLFDUUDDBUU'
p68
aS'RDUUUDLFUBBLLLBFFURRFUFRFUFDLULRDDURBRRRBFBFBDDDLDBLBL'
p69
aS'LBUUUFLDBRDBLLRBDUDLBBFLRFFDDURRBFUDRRUUBFLRDFBRLDULFF'
p70
aS'BURBURRBUFDFULRUBRBUDFFRBFFUUDFRLLDLUFLDBDFBDDLRLDRBLL'
p71
aS'LBUBUDRLDBRRBLUUDFLFUUFDFFDRRBBRDDULFUURBLBFLRRBFDLFLD'
p72
aS'ULBFURLLRLRUBLBUURRLBBFLBUDLFFRRDDFFLFFUBRDDRUDFDDUBBD'
p73
aS'BDLDUUFRDFFUULBBRDRDLUFLBULDLDLRBLFRFDRRBLFRBUFUBDBUFR'
p74
aS'LBULUDBUFFRBRLDFUURRBLFFFUDUBLLRFDRURBLFBBLDRDFDLDDBUR'
p75
aS'BRLUUFRDUDRURLDLLLFFUUFRDUURFFBRLRBRFBLDBBBDDBFDLDLFUB'
p76
aS'ULBRUFLLRBRLBLULRBUDLRFBRLDFFFURDFFDDUUDBDBURRLFBDFDBU'
p77
aS'RLUBUFDFFUURBLDDDBBRUDFUFFBRRRBRUUBLFRLLBLDDLFLLUDFBRD'
p78
aS'BRLBUFULUFUFDLUBLRUUDLFRLRRDFBBRFRFLDBRDBRFUDULLDDBFDB'
p79
aS'RBBRULRFDBUURLDLFBURUBFBDRULUFDRLDBRLLDDBFFLRLDFUDUBFF'
p80
aS'BFUDURFLRBRFLLLRFRDRDBFBLDRBRULRBLDBLBDUBFUFFLDFUDUDUU'
p81
aS'FBRBUURLBUUULLRDBDBLRFFDFDDDRBFRUUDLBBFFBUUFFRDLRDRLLL'
p82
aS'URLBUULLDFRBDLDUURFRBLFRRDDDLFLRBBFLUFRBBBBUDUFLDDURFF'
p83
aS'RUDLUFLURURRDLLLUFDRDLFDUUURBBRRFLDBBBLRBLUFFFBBBDFDDF'
p84
aS'DBURUDLRBBUFRLLUBRRUFFFFUDDLBFFRBBLRLLDRBDDFRLUFLDUUDB'
p85
aS'UULFUDBFRBBFLLRDFLBUFRFRBRRUBDURLFDUDUUBBDFFRRBLLDDDLL'
p86
aS'BRDUUFFUUFFBBLDRUUBLRBFFDDLFLDBRRURBLLUDBBLFRLUDRDLFDR'
p87
aS'UFFBULDUDBRDFLDRLRFDBUFLDDRBRFFRFUUBLBLUBBRRFURUDDBLLL'
p88
aS'LLLFURBUBBRURLBLBDDDFBFRRDRDFDLRFFLUFDLUBLRDUUBBFDURUF'
p89
aS'FRBFULLFFRBLULDLDRBBUDFUBUFDBUFRRRRLDRFBBFDUUDLULDLBDR'
p90
aS'RUFRUFLDRURUULBFDBLBUUFUDBBRRDFRLFLFRDBLBRDBDLFUFDLLDB'
p91
aS'DDFBURFBBLBUFLFFDLRLBLFDBLUDBLFRRDLURUUUBDRULBUDRDFFRR'
p92
aS'DLFUUFUBBRDRRLBUUFLFLDFBBFLRLFRRDDRRDFURBUDBBFDBLDLLUU'
p93
aS'DDFBURDBDRFUFLLBRFUDLDFLLUBURRDRRDLRRLBFBBFUBUULUDBLFF'
p94
aS'FLUFUBFRLUFRDLFLUDUFRUFDURLLBDBRURDBFRRLBDDRBBLFBDLDUB'
p95
aS'FLDRUFFRURFBRLFULURDLLFBDLLRUDRRUUUBLUFDBBLBBDFFDDBRDB'
p96
aS'LRDBULLUBUBFFLDBUDDRFFFRBLFRBULRFRFDRUBDBBLDFLRRDDLUUU'
p97
aS'DLFFUDRRLFRRRLULULUBBUFLUBBLDUDRUDLDDBRFBLFDRUFFBDFBRB'
p98
aS'DRLFUDBULFBUULBBLFUDLUFLDRURDRFRRUDBFLDFBRDBRRLLFDBFUB'
p99
aS'RRRLUDBDBRFURLUDRFLFDLFFLULUBULRFDBRBUURBLDDBFBFBDDLUF'
p100
aS'LRFFUDUFFRLRBLDDDDBLFFFUUDBRBLBRLBBUDUDFBRLRRBULUDRULF'
p101
aS'LULDUBFFBLLFRLBRFFUUUUFBUDDRLRDRLDDDDUULBBLFRBFBRDRBRF'
p102
aS'UBLDUUBULRLFBLUUFLBLFLFRRFLDUURRRURBDBDLBDDBRBDRFDDFFF'
p103
aS'RDDRUUDLBFURLLLDLUFFFRFULRLFBBDRULDUBBUFBRRFBLBRDDFUBD'
p104
aS'LUFRULFDRBRDULBRDBDFDBFBFDRLLURRRLFBLFRBBUULBDLFFDDUUU'
p105
aS'LBFDUBFDLLURBLDUFURLBUFRBLURDLFRFRRDDLBRBLFUBDUFBDFDRU'
p106
aS'FLFRULRRLBFRRLBLDUBFLBFDRUUULFURULDBDURFBBDLFDFUDDRDBB'
p107
aS'FDBBUFFFUFDRFLRDULRLDRFDLRUDULURURBBULDLBFLLFRDBRDBUBB'
p108
aS'DUDRUBLFFUURULLFRLLBBBFFRRUUDBFRLDDDBRFLBURLLRFUBDDFDB'
p109
aS'UBUFUDDULFDLBLRRBFBDRBFLUUFBRLURLFFBBRULBFDRRLLDDDUDFR'
p110
aS'BRLBUBRLDRFFLLFLDRBRDUFLDRBBUURRFFURDDUDBUFLLFDUFDBUBL'
p111
aS'URBDUUDBDDLLULBUULRLFDFLUDRLRFBRUBLBDFFRBFRBRLFFRDFUDB'
p112
aS'FRDLURBBBFDLDLBBLRDFUDFURFLUUUDRUFBDFBUUBRLLRLFRFDLDRB'
p113
aS'DUDDUDDBURFLFLFFBLLUBUFLRLBFURDRRFBBFRBFBRLLRULUDDRDBU'
p114
aS'LFFBUFLULBLURLUDLUFBBFFRFDBLRDLRLRBDRFRDBDFUUDURBDRBDU'
p115
aS'FLFUUBBBULFLRLDLLDDBRRFFDLRLFDRRRRLRUDUUBDBUFBUBBDDUFF'
p116
aS'RRUDUBBLUBFLRLUDFDFUBUFFLBDFLLBRDFBFBRUUBLRRLRDRFDLUDD'
p117
aS'RBDLUDDUBFDRLLRBDUUFFRFDRURULFURFUFDBRLBBULLFDBLBDFLRB'
p118
aS'RLFLUFLFRRUDRLBURULUFLFFLBFDRUFRDBLDLBFRBBBDRDDBDDUUUB'
p119
aS'RULRUFLFFBUDRLLRLUBDFFFDLBFFLUFRDBBDBRULBBRUURBDDDULRD'
p120
aS'DDUFURUDUFRBRLFLLFDDLUFUFLLUFFRRBDBBRDDUBULLRRFBBDLBBR'
p121
aS'DFRUUDULLFDBDLUURLBFBUFRDLFFDRRRFFBUDRLFBLBULDBRBDLUBR'
p122
aS'FRLRULBURUBFRLFBDDLBRFFBLFUUURRRLRFDDLBDBUBDFLUDBDLUDF'
p123
aS'DLULUBDRDULRFLBRULUFBDFFLLRUUFRRBRRFFDBUBDLUBLDBBDRDFF'
p124
aS'UBUUUFFRBULRBLLBRRLDBDFRRUDBFRURFDLLFFLDBUUDLFRDLDBFBD'
p125
aS'RUFFUDBDFBURBLLRBUBRFFFDFFUDURFRRUBUDRDLBULLLLDDBDLBRL'
p126
aS'BLBRUBDLFBLLDLBFUUDFRLFFBBRDUFURFFDUDDLDBBLRUUFLRDURRR'
p127
aS'FRFRULLLBBURLLDUBRBLUDFBRUDBFFFRUUBDDRLDBBLUFUFRDDFLRD'
p128
aS'DLRFUBDFUBRDLLULBBFURDFLUDLLBBRRUFLFFFURBDRDLRBDFDRUUB'
p129
aS'FBLBURRRUBFDDLURURUFUBFDDRFLFDLRDFDBBLRBBRLFLDLBUDLUUF'
p130
aS'BFURUBDBDDLFFLDUBLBRUFFDFLRUDFBRURULLUFLBFBRBLURRDLDDR'
p131
aS'UFRRUURBUDBBBLLLDBFFLDFFFFBUUUURRRDLDDLLBUFRDBLDBDLFRR'
p132
aS'BFLRURFDDFLBULULDUUFRFFFRLLDBDURBBUBUDRDBBRRLUBFRDLDLF'
p133
aS'DDDLULLDURLRDLBLBLFUBRFFUUFLFUFRRUURBBFDBBBLRDFDRDUFRB'
p134
aS'RFUBUBRUUDRFRLDRDUDLFUFUUBDLDBRRFBFRLBFLBRBLLLUFFDLDDB'
p135
aS'BURUULBRFLFFRLBFLLLDURFRBBUDDRLRDLBDUDBUBFRLFDBUUDFDFR'
p136
aS'LBUBUUDRFUDLLLUFDBLRDRFDRFBFLRLRFRLLBFRFBUDDDBUURDBFBU'
p137
aS'RLBRUDRFBLRUULBDDDLLBFFULBFDUDRRLRRULFFBBURDFUFFLDDUBB'
p138
aS'BLBDUUUFBDRDDLBDUULBRLFBFRFLFRDRLRDLRULFBRUFDBLFBDUFRU'
p139
aS'FRDBUDBRRFDLFLBDDURBLBFUBFDURLURURDBFFDRBLULFRUBFDLULL'
p140
aS'RLLRUFRRUBRBFLBFDFUFDRFUDLBLUULRBDBLUDDLBDFURLURBDFBDF'
p141
aS'BRFRUDLLLDUDDLULURDLDLFFRFUFLBBRDBBFLFRFBDURRFBBRDBUUU'
p142
aS'LBRRULRDBUFDFLUFBULDBUFURBDURBLRLDDDFRFBBLLRLRDUFDFFUB'
p143
aS'FLLDUFLFRLLDDLURULURDBFRDLURBBURUFBUBDFLBFFRRUFBRDDDBB'
p144
aS'BRRLULBDUFFFBLBDFLFRUUFDBUDRBLURRRRLUDLFBLFUBDDRBDLDFU'
p145
aS'BUDRUBUFUBDFBLFULULBRFFDFFFDLRBRDRLLRLDDBRFUBLRBUDRDUL'
p146
aS'UULRUDDBDFFBLLLDBFLDRBFFUBBBLRFRRDURUDURBUFRBLDFFDULLR'
p147
aS'RFUDURUDDLLFRLURRBDDUUFBDLFRDRLRFURLLBDUBLBBLFFFUDBBFB'
p148
aS'LURBURUDLFUFULFBRBRFDUFDULBFBLLRFBDDUBDBBFFRDRLULDRRDL'
p149
aS'RDFLUBFULRDDFLRBBUDRFBFFRLUDULRRFDDULLBLBUBBBUDRRDULFF'
p150
aS'UFDDUDURRFRLFLRBFFULRBFFBBLLDFLRBUUDFUDRBUBLBRULBDLRDD'
p151
aS'UFLUUDDFUURUBLRDDRFLBUFBFUBDFRFRLBBFFUBBBRRLLLRRDDLDDL'
p152
aS'ULUFUBRDBBFFULBRUBFFLBFLRRFBUDRRRFRDLDUUBDLBDRLULDDLFD'
p153
aS'LLLLUDBRRBDBULBRDDBLFUFFUDDRFLFRBFUFURUBBUDFLRLDRDBURF'
p154
aS'RRFLURFBRURRBLFLUBDLUFFDUURLFURRDDBDDBLUBLBULFLBFDDFDB'
p155
aS'LLDRURDUBLDFBLFBUFRRUUFDBFBLDRFRLRULRBDBBLUFFFLUDDBURD'
p156
aS'DLUUURDBFFRBULDRLLFFBDFBBFRDUFBRLBUURBLDBRLRUDLUFDFLDR'
p157
aS'DUFBUDDURRULDLBURLLFBRFDFFRDUFRRLULUURDLBLFFBBFBBDDRBL'
p158
aS'BBRFUUFUFLBDLLRUFDBRLDFLDURRRUBRBUFLFDULBDDUFBDRFDRLLB'
p159
aS'LBFUUFUDFUDULLUDFDRUFLFRDBRBLBRRRLBDRFLLBRRDBFUBFDDUBL'
p160
aS'DFURULBBRFRFDLLBULULBFFULDRFLDBRDBUULFDBBDFBRRFLRDUURD'
p161
aS'DLBFUFLRRFDLDLURLFUBLDFLRLUFDBBRFFUDDRDUBUBBLRBBRDFURU'
p162
aS'BRDUUBFDDDLRULDUFDLRLDFFFFUULLURFBBFBURLBBLRRFRBDDLUBR'
p163
aS'LULRUBRLRBFDDLBFUDURFDFFBDFDLDBRUFRBBLLRBUUDLUBRFDFULR'
p164
aS'UDUDURDBRLLLDLLDULRFFBFFBFFRLLDRRFUUBBBFBUFRRDRBLDUDBU'
p165
aS'LLRRUBRUDDUUULFDBDFLFUFDFFULDFRRBURBBLLDBLRBLBRRDDFBFU'
p166
aS'DULLUDRLRBUUFLRBRFRBLFFDBBUULFFRUBFFFBRBBDDULDLURDRDDL'
p167
aS'DRUBUBBRDFLLDLUUFLBUBFFUFLRLDDDRBRLFBBDDBLLUFRRRFDRUFU'
p168
aS'BUBDURULFBDRBLFDRLBDULFLDFLLRFURUFFRUBRBBLUDRDULFDBDRF'
p169
aS'FDRBUFRLFLRBFLLUULLLDFFRUDFRBDFRBUBUDDBUBULUBDRBRDDRLF'
p170
aS'LRBRUDRFUUFDBLDLLDDDFUFURBFFRDLRUULBRRLFBULFBFDBLDBRBU'
p171
aS'RFDRUFFRUUFLRLRLBBUDULFBRLDBBRURDLUBFDFLBULBDRUFFDDBLD'
p172
aS'UDRUULFRDBFFBLLBDRDRBFFBFULLLDFRUDRLUDLBBRBFFUDRBDLRUU'
p173
aS'FFBBUBRLLRLLULRURRFBUFFULDFFFDLRBURUDUDDBUBDBBRLFDLRDD'
p174
aS'FRRBURRUDDDBDLBDBRBUULFLUDBLRUURRUDRDBFFBLFLFLFLUDFLFB'
p175
aS'LDLFUDRULUUFLLLUBFLRUFFLRRUBFFBRBFBBDRRRBFDDRBUBUDDDLD'
p176
aS'RLFDULDLRRULRLBUFBLRUDFBFRFRULBRDLUUULDFBRFFDBBBDDFBUD'
p177
aS'FRDUUUBDRFFBLLFRDLUFDUFBFRRRDDBRLBLULLURBBFUULBBRDFLDD'
p178
aS'LRBUUFBDDFLDBLFFUBURDBFFUBLFRUFRRBDRRULDBBFLRDURLDDULL'
p179
aS'LRDDUDRFFUBBFLDURDLFFDFFRRUBUFRRUFBULURLBLLLRBLBUDBDBD'
p180
aS'LFDDUFDBLULRBLDDRULBBUFBUDRFRFURURDBBFFRBFDLURLFUDLBRL'
p181
aS'UDFLUULRBRBDDLLDFBFULFFUULBFFDURBBDRLLURBFDRRFBRDDRUBL'
p182
aS'RFBBUDFLLFFRBLURUUBRFBFRBFLURDLRBFDBULDRBDDFLRDDLDUUUL'
p183
aS'LFRLURLLUBRDRLLUBDBDFRFBFFBLDDURUDUFFULDBLRFRUFRDDBBBU'
p184
aS'BFLRUBRBBDLUDLDLFUBLRUFBDRULDFRRLBBDFURDBULUDFLUFDRRFF'
p185
aS'LLRUULDDDBRUULDURFLDUUFRRDFBBLLRFFLRBBDUBRFBULBBFDFRFD'
p186
aS'URFFUDFBFUFDBLBLDRDFBUFLDRURULRRLFDDLUBBBDRRULUBLDLRFB'
p187
aS'ULBDUUFLLUBDULDFBRRDBDFFULRFFURRBLUDRRBRBUFLDLFDBDRBFL'
p188
aS'DDUFUFURULBBRLLDULFFBFFRBLLDUFLRUFRBRUDLBDLDUFBRBDDRBR'
p189
aS'LDRFUFFBDDFDRLLLLDBUFDFDUURFFURRDRLBFLLRBBRBUBBUUDRBUL'
p190
aS'LLULULURDDRBBLBDBFLRUFFDLUFBLRDRDLURRFBFBUFRDRUFFDDBBU'
p191
aS'URRUUBLLFLUUFLFRDFDRRRFFBUUDRBDRULDUBBBLBLLLFDDFFDBDBR'
p192
aS'DULUUFFLBRRFDLRDULRFBDFBLLUBULRRBFDUDBFLBLRRUDBBDDFRFU'
p193
aS'RULBUFULBDRBFLRFLBRDURFLUUFFLRDRFFFRUDLDBBDUDBRDUDBLBL'
p194
aS'BFDDUURBBDDRBLLUUUFLRDFFLRUDFFURDFRLBRRFBUUBDFLLRDLLBB'
p195
aS'RLFLUUDFBLFUFLDLBBBDURFFRUBDLRBRDLRDRUDBBBLDUFRURDUFLF'
p196
aS'ULRFUFFUDRUFRLUFLBDBLDFRDUUFRLDRFLBBUBBDBLRRDUDLFDLBBR'
p197
aS'RFRFURDUFLBDULUBDBLBURFDDFFRLLLRBBDRFLFFBBURUULDRDULDB'
p198
aS'FDBUUFULLFFUBLLBRUDULLFLFRRUBBURBDFBLDLUBDDRFDDRRDFRBR'
p199
aS'LDUFUURRRLULFLLULDFFFLFRBFUDUFURBUDFBRBBBDDRBDDLBDBRLR'
p200
aS'BFBUULRDLDFURLLRDUFBRFFBDRDBFBRRLLUDLDRBBLFRUFBUUDUFDL'
p201
aS'RDFFURBBBFDUFLBFDFDLDUFUURDLULRRUBFRRFUDBBDLRLRLLDLUBB'
p202
aS'LFRFULFUFFDUDLLLDBBBDRFUBRUDBLRRBRDRBRLBBUULDDFULDFFUR'
p203
aS'DDUFURDFLRDLRLBDLLLUBRFDUBRRLFLRURLFBRBFBBUFBUUFUDBDDF'
p204
aS'LLBUUDDFLRBRRLFLFDUDFBFLFURUFFLRRDRUUDDLBBBUBBDFUDRLBR'
p205
aS'FFDBUUDBRBRRFLDRBUFULDFLDLFBFLDRDRUFBBLFBUDLUURURDLBRL'
p206
aS'LBDDUBUDRFFLULLFDBLLDFFRUURLFBBRBRFFFRRRBLDLBURUUDDDUB'
p207
aS'DBLFUDDULRBBRLRFBBLDRLFUBRFRFLURBRLBULUFBRDFDFDUUDDFLU'
p208
aS'LBDBUFUFUFDRULLFFFURUDFDDLRBUBLRURRBBFLLBULBDDRRBDRFDL'
p209
aS'LBFUUFLUFURULLRRFFBDUUFRBBDUUFBRFLFDRDRLBBRRDBDDLDLBDL'
p210
aS'RBFLUFBRBUFDLLRUUFFRDFFDUBRLUDDRDBLDLUFDBULBRRFLLDRUBB'
p211
aS'LDBBUBRURDBULLFUBBRRDLFULFBUUURRRFFDLLRDBLBRDFFFDDULDF'
p212
aS'BFUBUURBFBURDLLLDLFLUDFULBBUDURRLBBDFLRRBURRLDRDFDFDFF'
p213
aS'FLDLURDFLFLRBLDUUDBBRUFBFULDLBDRDLRUBFRFBFBDUURRUDRFBL'
p214
aS'DLFRUBURRRBLRLFLFLFUBDFBBURDLBDRULLFUUULBDDDBFFDFDRUBR'
p215
aS'FDLUUFDRFLRDBLRLDRBFUDFFUBBFDRURFBUDBBDLBURLRFLUBDLURL'
p216
aS'FUBDULFLUFFRLLRRRUBBLUFBUFLRRDBRDLDBULDUBDLRDRBDFDFBUF'
p217
aS'DUFUULFRBLFULLBUURBRFLFFUDLFFDBRBBDDRRUUBBLRDBDRDDFRLL'
p218
aS'LLURULFUBBFLFLUFBFDUUDFFFBDULRBRRBBDBUUFBDLDDRDLRDLRRR'
p219
aS'DDDBUFUBRDLBRLFRURFRFRFLDDBRRLURULUBLDFLBBULULBUDDFFFB'
p220
aS'FFDUUFRBRULLFLRBUULRLLFLFDURFFBRRBDBFBBUBBURDLLDUDDRDD'
p221
aS'RUFDULDLLLLRDLFBBBLRUUFBFRBLURBRFRRUDUDDBDBFFFFDRDBULU'
p222
aS'UFDUUFFUFUUFULLDDFRBRBFRBDULRLLRLLDLRFRRBBDFBBBBRDLUDD'
p223
aS'RLDRUUUDURDBBLFFDFDLDBFFDULRFFURRBRFLFBBBDRUUULLBDRLLB'
p224
aS'LLRBULBUDURDRLUUDFLLUFFRFDDUFLBRFRRFFDRBBBLUBBFBDDLDUR'
p225
aS'UBBFUDRRULUUULDURFFDRFFLDUDBFBBRFFLRLRDLBBBURFBLLDDDRL'
p226
aS'RFUBURFFBBFFBLLLLFBDDLFUUBRBRURRRDLDLURUBFLULDDUDDBFDR'
p227
aS'DRFRULDUURRUFLDLLBDBRFFUDBFFULDRFBRLRFBUBLFBUULBDDDLBR'
p228
aS'ULUFUBDBUUFFDLDDUFRRRDFLDFRBRFLRUFDRLUBRBLBRDLBBBDFLUL'
p229
aS'LLRFUUDRBULDRLFLUUUFBDFDRRLBDBDRFLLUFBFBBBRUFRUFRDLDBD'
p230
aS'UFFUUUUDFRLUBLLRFLBUFLFBBFRUDBFRRLDLRBFRBBDLDDRDDDUBRL'
p231
aS'URBLUBDDFLFUULUDDFFLRFFBBFBLRRURRUFULUDRBBLLBFLRDDDRBD'
p232
aS'DULDUDRDRDBUBLLRRRFUFFFBDLBBFULRFBRDFLFRBRBBULUUFDULDL'
p233
aS'URLDUBFRBUBBDLBRDLDBFFFLDLRLUUURDBFDULRUBFLUDBFFRDLRRF'
p234
aS'RDBFUULLLBUURLFDBURDFUFRUUFBFUBRDFFDLLDRBDFLRLBBRDBDLR'
p235
aS'RUFDUUFUDDBLDLBLLUBFFRFLDBLRDDRRFUULURRLBLBRBFFUBDFRDB'
p236
aS'UUFLURLDLFLRFLFRDRBBBUFBLLDUDFBRRDUUDFRFBUBLBUDDRDBLRF'
p237
aS'LBDUUDUBFBUBBLRULFLFURFLRRFBDRFRLDFDLFUBBDRRLRUBLDUFDD'
p238
aS'RFFLUBLDDLFLULUBDURRFLFFFFDRRFLRLLUBUDBRBDRRBDBUBDBUUD'
p239
aS'RDDUURLBLRBLDLLRFUURFBFLLFBBLDURRRUFFLFDBBUFBDFBDDUDRU'
p240
aS'BFRLUBDFBFBBDLUDDLFBUDFUUULRRBLRLLFUDRLUBRRRUDLRDDFFBF'
p241
aS'RBFLUDDBLBULRLURRUDFFFFBULBLDRFRDRFDURDRBLFUULBFUDDBLB'
p242
aS'RLURURLDUUDBBLFDBUFRFUFUDDDBLFRRFDLBRBLFBLLURFURBDFBDL'
p243
aS'FDUDURRRBBRFLLRUFDRLRDFFRLDUDBURBLULLFDUBUUBFLBFFDBDLB'
p244
aS'DLUDUFDUFRFRFLBLFBFRRLFRLDRBBFURRDRUFDBLBULBBUUDLDDLBU'
p245
aS'BRUFUFFURLLFBLFBLDRFLUFDDRRLBUDRLRUDLDUUBRBRDBLUDDBFBF'
p246
aS'BUFLURUBRBFLDLLBBUDLRRFDDBFLDRURULBFULDFBDDRBLRRFDUUFF'
p247
aS'DUDDULDULURFLLRBBLDRBDFBBDFRFLBRBFFURDFUBUBRLRFRFDLULU'
p248
aS'RLUDUUBBUULLRLFLDDFRBDFBBFULURFRUFFFBULRBLRRRFBDBDLDDD'
p249
aS'UDRUURBRRUDBULFRULDFFUFBDFDLLLBRDUBUDLBFBBFRBLRFDDLRLF'
p250
aS'FLFRULLUBFDLULFBRDRBRFFFRDBBLDURFLRLUBRBBRUDFULUUDDDBD'
p251
aS'FDLDULUFBLDBULRBLRRDURFFDLLFBFBRRBLRUBDUBRDFLFFUBDUDUR'
p252
aS'RDRLULFRFBRUFLRUFDLDBDFFRLRDUUFRUFULBBDDBBDBLLUBLDBURF'
p253
aS'FUDBUFFDRBFLFLRDUUBFLRFRFURRBUBRLDBBFDLRBUULRULLLDDBDD'
p254
aS'FFDUULUFLURRULDLDDDRRDFRFUBLBLURLUFDBBRBBDFRRBLBLDBFFU'
p255
aS'FFDBURFUDUURDLRDFRFLULFDUDLBFDBRFFLLBRBBBBBULLRRLDDUUR'
p256
aS'FDDFUFBLFBLLLLBBFUDDLUFUBRDUBLURUUFDFDURBRRLRRBRDDBFRL'
p257
aS'UFFDUBFUBDRRULUURRRDBFFLDFUBDLLRRLLLDFBDBBUUFRBFRDLDBL'
p258
aS'DFFDURBBDFUUULLBULRBBDFFRRLBBURRLFBFRFUDBRLDRLLUFDLDUD'
p259
aS'LRFBUDDFBBURULBUDBFRDUFDBLFUDLFRLULRDBUFBFDBRRRLRDLFUL'
p260
aS'FLRDURFBBULBRLBBFRLUUUFLFLDLFRFRDLBUDUBFBBRRFLDDUDRDDU'
p261
aS'DRRLULFRRFBULLUDFBBDRUFDBBRURUURFFBFBULBBRDDLDFLDDLUFL'
p262
aS'FFBDUUDFBRLDRLRFLDLBRFFRLBLFUBRRLUBLRDULBUUDBFBUFDDRUD'
p263
aS'LDBUURDDFDFULLFDUFFBURFRRFFURLLRBDLRLUBDBLUFBRBRUDBLDB'
p264
aS'UUDDUDUURBBFBLLDRBRDLFFBDDRLFBBRFURURUDLBUFFFLRBRDLLLF'
p265
aS'RLLRUDDFFUBUBLFFBBRLUUFUBFFLULFRDDDRFRBBBDURRLUDLDLBRD'
p266
aS'LLRBULDDBBBFLLDFFDRRFRFRLDBUFRRRBLUUUUDUBLRFBLFDBDDUUF'
p267
aS'FUDFUUBBDULBRLLFRURFLUFDFRUUDRFRDDDFLBBFBRLLRLBDUDBBLR'
p268
aS'DULUURDBBBUULLFURFBFLDFLFDRULFDRRRFDFBLUBDLLBUBRFDRDBR'
p269
aS'DDLRURULRRBBDLLUFLRUBRFBLBLFUFURBULFUDDDBLDFBBFFUDFRRD'
p270
aS'DBUDUDUUBDRBULDFBRURFRFLLDLFFFLRLDLLRFLRBUUFRBBRFDUBBD'
p271
aS'ULFRUBLURRRUDLFDFLLRFLFDDLUFDBURRLUBRBDLBDUBDBBFFDUBFR'
p272
aS'RDLUURFLBLDUBLFULBRUULFFDUDBBRRRDDRLFBDBBRUDRFLFFDFBUL'
p273
aS'LFFBULRLULBRBLRFFBLDDFFRBLBUUUDRDBFFDDDBBURLDFUURDURRL'
p274
aS'LBLLURULFBLFDLDBRFLBURFDBFRDLBRRBFURDULFBBUFRUFDUDUDDR'
p275
aS'RBBDUUUFRBDUULRLUFURDDFRLDFFLRBRRRLBLFDLBLUFBLFFBDBDUD'
p276
aS'BRBUUDLBURLLLLDLULUBUUFRRRDBBFRRLRUFDDFBBDRFUDFFFDLBFD'
p277
aS'LDRFUBDDRBDFBLFDUFBLUDFLRFFUULBRBBFFURRRBRDRUDULUDLLLB'
p278
aS'RUDBURURRDRBDLBRFBBUURFLFDLDFFDRFBUULBRDBFFLUFBDLDULLL'
p279
aS'RLUDUBFDFURFDLULLDFFBBFFUFDLURBRLDFRLURUBLURBBRDBDDLRB'
p280
aS'DLRFUDRDDDUURLBBUFURLRFDLFFUUDBRBUFLBLBLBLBRRRBLFDDFUF'
p281
aS'LUUBUBBRUFUBRLFBFFLLUDFDRDLDLUBRFBDFRLLRBLRRDDUDBDFRUF'
p282
aS'DDBBUULRUBDUDLLDULFRBUFLFBFDRUFRFULFLRRBBDRFBDFRBDLRUL'
p283
aS'FUUDURBBDDDRULRBFDULRFFLFDULBRBRLDBBFFFDBFRUBLLLRDULRU'
p284
aS'ULLBUFLLDRRDDLBRFFBLRDFRDUULLBURDLDRBUBRBUFFUURDFDBFBF'
p285
aS'FDRRUDUFRBBFRLRBRLUBDFFFRFLDLFDRDLUDULULBUBBDRULLDUBBF'
p286
aS'RBULUBDUFURBBLLDFDLLBFFUBURUFFFRRDDRRBLUBDURBFDFLDRLDL'
p287
aS'UDULUBLDLBBFRLFDDFFLRUFBDRDBUFBRRBFULURDBUBLRDFRFDLURL'
p288
aS'FFLUULDBUBFFRLRDLRFBUUFLRDLBRBDRULFRDDLFBLBUUUBRDDRFBD'
p289
aS'BLRUUBLDFLDURLURURDRDFFFULFRBUFRLBBLBRBUBRDDUDBFFDLLDF'
p290
aS'UDBBUUFBFDUDDLBFRFLFRFFRULDBBRURUBLLRRLLBFDDUBRULDDLFR'
p291
aS'RFUFUFULLLDFFLRDUDFBBLFURLRFDBURBDRULBBDBRBBLDLRDDUFRU'
p292
aS'FUFLURLBRBBLDLLBFDRLRFFDLRBFUDRRLFUDUULDBDBFUUBUFDRRBD'
p293
aS'RUBRURBRUDFRLLFUDUFRFBFFBDRLBDDRUDFBULFBBLLDFLBLUDURLD'
p294
aS'RFDLUDLFBDBLULLDFBBDUFFUUDFRRURRURBLFUBLBLUDDRRLBDRFBF'
p295
aS'LFBRULDDRLFUFLUUDFBFURFBRDLBLBURBFUULRDBBBFLRFLRUDDDRD'
p296
aS'BBURURLBUUUFDLLFFRRRDLFBDUULRBDRDBLRLFFDBUBULRLDBDFDFF'
p297
aS'FDURURDUDLUBDLFLLRBDUFFUUURFFFLRBDLFRLBDBBLFRDBURDRBBL'
p298
aS'UFFLUUFFFLRDDLDBLLDUFRFBLRDBDRLRRBLRLUBBBFUFRDBRUDBUDU'
p299
aS'FBDRUDFULFLBRLUBBLUDDRFFULDBURRRFBLFLBRLBDUFDUDLFDURBR'
p300
aS'UUDUUBBLUFLBFLFBDLRRFBFRLFLFDULRDDRFLUDDBBRBRRRULDUBFD'
p301
aS'FDUFUBDLRFURRLBFDDDLRUFLRDLUFBURULDDFRULBRBRBLFLBDFUBB'
p302
aS'FRFUULRLUDRRBLFFRLUBDBFFBRDRUBDRFFBBDDLUBFLDLBLRDDUULU'
p303
aS'DUULUFFBRDDBDLLUULFRBDFBULRLFUDRRRUDRRFUBFBBDLFLRDLFBB'
p304
aS'DLUUUBBDDFFRDLDRLLDUBFFBUFRLLDRRBURFFUULBRLUBLRFBDDRFB'
p305
aS'RDUBULDBBRRRLLBLUBBRUDFRLDBFFRLRLFFDFFFUBULULDFUBDRUDD'
p306
aS'UDFBURBDLLURULRLUFDFRDFDLLRUUDRRLRLUDRDFBBBFUFBBLDFBBF'
p307
aS'LDRLUUFDFUBBRLBFFDURFUFDBUDLBRLRFLFUDLRFBDLLBBBRRDRUUD'
p308
aS'DDRBUFLBLURFRLBDBFBLLDFRFDFRFUURUDDUUFRLBUBRRBULLDLBFD'
p309
aS'DDDBUURDLFURFLLBFFULLBFRFLBUBUDRRRRBBFULBRDUDLDLFDUFBR'
p310
aS'URURUDLUUFDRLLBBUBDLLLFFBRBRUDURFFLLFFLBBRFFRDDRDDBDBU'
p311
aS'UFBLURLBFBLDBLULDFFRRUFUFLURFBBRUBFURDDBBDLRRLDDFDRULD'
p312
aS'BBRFUDLLLFDDFLRBDUDLRFFUFBULLBRRUURBFBLRBUDURDLRBDDFFU'
p313
aS'FUBBUFLDLRULDLRDURRBUBFLFBFRRUFRRFDUDFBLBUBFDULBLDDLRD'
p314
aS'LURRURLDULFUFLBRLFDDURFFUUBLLDURBBRFBDDBBLRDDFLFBDURFB'
p315
aS'FBRFUBDRDDUBDLLRLRUUUBFRLDFURLDRBLULDRRUBLBFBFFBFDDULF'
p316
aS'BBBFUFFUFUBURLRDLDFDLLFURFLBDDBRBURRLLRLBFUDFBURRDULDD'
p317
aS'DRLUURDFUDDUDLDUBBLLRFFLFFRDDFURRRFRFBLBBRBUFBLBUDLUBL'
p318
aS'RLBLUBDLUUFLULFRBFUUDDFUBFFDRLRRDLLFDDLDBFRBBFRBUDRUBR'
p319
aS'UFDBUUDBURFBULUBRBDBLDFLLDRFRFFRDULFLLBRBFRUFUBRDDLLRD'
p320
aS'UUUFUBUDLRRBDLFRLLFFFDFRRBBBRLFRBDUDRUFLBUFLBDLUBDRLDD'
p321
aS'BDFRUDURDFFULLLRULBBUFFUDBLLRFFRDRDLRRDFBLBBURBDUDUBLF'
p322
aS'BFFDURRLDDDLBLLRFUDURRFBLUDBBBFRUFBLULFFBUBLULRFRDDRDU'
p323
aS'LBRUUDUUFDRBDLULBFDLUDFLUUBRFLFRRBDLDBRBBRDRRFFBFDLULF'
p324
aS'BRLUUFBUFRDFULBFDDUFLUFLRRRUDDBRRUDUDBFLBRLLLDFRFDBBLB'
p325
aS'URBBUDLUFLBRDLUUBBFRLLFDRLBFFDURFBLDUUDRBRRBDFFLFDDRLU'
p326
aS'RFFDULFRUBFUBLRFUDRBBRFRFLUDULBRBDFBRDUFBDLUBRDDLDULLL'
p327
aS'LFRFUUURRBRBDLLLLDBBFDFRBULRLFDRURBFDBDFBLDUFLFUDDRUBU'
p328
aS'FLDLUBFFDURFBLBRDUBRLDFFRRLFFDBRUUDLRUBUBUBFBLRDLDLRDU'
p329
aS'FDULUBRUBFDRDLRBRLUFDBFUDRDBUBFRFFLUFBUUBDRBRLLLFDRDLL'
p330
aS'LDFBUBBDUFRDFLLLBBURDBFDFFUUURDRFRRBLFDLBULUBRLFLDUDRR'
p331
aS'RLRDUFLFUFFULLFBUULLFLFRBRDUBFURDDRLBUDRBDFURRDDBDBBBL'
p332
aS'FUFFUBRRLBBRRLRFLLLUDLFURFDFDBFRFDBUDRUUBLBDBRDUBDDLLU'
p333
aS'FFRLULLDFRDBDLDBFDUURUFBBBFRRUFRRBLLDLUUBUDFLFBLBDRDRU'
p334
aS'BLBDULBBLRLLRLDFRRLFDDFFDUULBRURRFFUDUUBBUBLRFDUFDBDRF'
p335
aS'BRDFUBRDBRLFULUULRFBDDFUDFBBRULRRLULRFURBDUBFFLLFDBDDL'
p336
aS'ULBBUBLURUUDBLDLDRDFBFFDFLFDBUDRRRRURLBRBLFFDLUBFDUFRL'
p337
aS'RFFDUFDULFLDFLLUUFLBDLFBRRBUDRBRRBFFLURUBDURLUDBLDBDRB'
p338
aS'DLLLURRRFBFUULBBRLUDBFFFRDBDBUURBFLLFDRUBDDUUDBLLDRRFF'
p339
aS'LLDUUURBLFFRDLDBDBUBDFFFBUFRRDURRUFFBLLLBLURRDRLBDDFBU'
p340
aS'RBLFUFBUURLDDLUDBBLLURFURBLBDULRRDBLBUUDBDFRFFRFLDFRFD'
p341
aS'FLULUUUUDLFLRLBFBLRDDFFFLUFDBRDRLBRBBUFRBBRDRUFDRDDULB'
p342
aS'BBFBULLUBDFUBLDUDRBFDFFLUDBFRDURBDDLRRFUBRULFLRRUDLRFL'
p343
aS'DUDDUDFFRLDLBLRBLBUBRFFBURDBDRRRLLUUFFFLBLFBDURLUDUBFR'
p344
aS'FDBFUDFFRFDLLLFBDDDRRFFLBRUUBLRRUUUBDLLBBLUBRDURBDRFUL'
p345
aS'DRLBULLRFFUDBLUULRBBFFFUDBURRBFRDFFLBLRDBDDRLUDRFDUULB'
p346
aS'DRUUUBFDLFRBRLFLLFDDLRFBUDDLBRFRFRLFRDRLBUUFBUBBLDUDUB'
p347
aS'BBLBURFURULDULLDFLLUUUFDRRUDDLDRRURDBDFFBLBBBRBFFDLRFF'
p348
aS'RURFUFFDLRLFBLBFLDDBBLFDLUUDRLFRRFFUUUBLBDBURURLBDDDRB'
p349
aS'DLRFUBFUUDDUBLBLFRDUFRFRDDRRRUURRLLBBFFDBLLDULUBFDBFLB'
p350
aS'RBRDURBBBBDFLLDFFDLDBLFRFLDDBLRRRRUUULLFBURBDUFUFDUFUL'
p351
aS'FDLFUBULFBDBLLRUBDBDRFFDDUFBFRRRBLRLULRRBBDFUDURUDLFUL'
p352
aS'DBLLURBUBFLDDLUUFRBDFFFBFRRLDDRRFFULBDRUBFULDUBRRDLLBU'
p353
aS'LRULUBBLFFULFLDBUBRRDRFULDRUBDFRBLBDBFRRBLRUFULUDDFDDF'
p354
aS'BDBBURDUUBLRBLFBBRURDFFLFLRLDFURLLDFUFDUBFRRFLDLRDUDBU'
p355
aS'URLFUUBDBFDBBLUDFLRDFRFLLBDFRLLRLUFUURDLBBRURRUBDDFFBD'
p356
aS'BURRULRLURRBULFRBDFULBFFLDFBLDDRFDFLDUBBBRFDLULUDDRFBU'
p357
aS'DUUUURLFRBLFLLBLFLFDBUFLRDUFLBRRUDBDLFUFBDBDFRBDRDRRBU'
p358
aS'BUUUULRDRFLLBLRLRUDDRRFLDUDLFBDRLRRUBFUBBFFBDLUBDDFFBF'
p359
aS'BDFUURLBDBUUULBBDRULDLFRFLFDBULRRDRLRBUDBDBFFRFLFDURFL'
p360
aS'RBDDUFRUUUFFBLRDBDBDBDFRLLUFFFFRLBLLRURDBRFBUBULUDLLRD'
p361
aS'LRULUURLUBUFLLFFDDRFFBFBULDRUBRRDBRBLRDFBBLDRLFDDDUUBF'
p362
aS'FRRRULRURDFDLLDBLLRUDLFBLDUUFFBRRBRDFULDBUBFUBFUBDBLDF'
p363
aS'DRFDUDFBRULLBLULDRBFFFFLDRLBFDBRDDFUUURRBLFURBUUBDLBRL'
p364
aS'DRUDUURLUDBBRLBRRFDFLFFBRDUBRFFRDLBLRLLFBLFUBBUFUDDULD'
p365
aS'FDRFUBDBBFUBRLRDURFFUFFLDLLLUBBRDRFLDRUUBDUDULBRLDRBLF'
p366
aS'RBUUUFRBLLRLDLLLBDDUBFFLFBURRFRRDUFDBUFLBLFDBURBDDURFD'
p367
aS'URRUUBRFUBBBLLBRURDFBRFLFUUDRFFRLDLLDDLUBFFBBUDFRDDLDL'
p368
aS'UULFUDFUFULFDLFRRFBURUFRDDDBRRLRBLLUDBRBBRLDBBFDBDLUFL'
p369
aS'UDBRUUBRLRLULLBDBFLURRFURLUBBRRRFDLFLFFFBDUDBDUFFDDLBD'
p370
aS'BBLDURBFBFBFFLLLDDULLBFFLFRBRDLRUFUUDRRDBBRRRULFDDUDUU'
p371
aS'UDUUUDRRURBLULFDRFBFRRFRFUDDLBBRBULRBUFBBFBDFDFLLDDLLL'
p372
aS'DFRUURDDLLFBDLUBBRURFUFLULLRBBRRLRUFDLDDBFUBUFBLDDRBFF'
p373
aS'RUUUUBUDBFFBRLFDUFLLDLFRBFFDDRURBBRLRLULBRUFLLBFDDDDBR'
p374
aS'BRUUUBUULFDLLLBDRDFULDFFURFBFRURLDDFBRLLBLUFRDFRDDBBBR'
p375
aS'DLUDURDUUBLFRLFUFRRRFDFFBLLDBBURFLRRLDLUBLBBFUDFUDBDBR'
p376
aS'BUDBURFLLFBRDLFBFLLRUBFUFFDUDRBRUULDBDUUBLFFBLRDDDLRRR'
p377
aS'DDBDULBRDDFULLLUBBRURRFBLFUFDRURDFBRLULBBUFRLBFFLDFURD'
p378
aS'DDLBULRBRFUDLLLBDFUFLUFRRFDFRBDRDRUFBBUBBFDFULULLDRBRU'
p379
aS'FFLFUDULRLUDBLDBRUDULFFLRURDBBDRBBUUBFDLBDFLUFRRBDRLRF'
p380
aS'RFBDUDFBRURLULDLUBBFUUFBFLDDFRFRLULDDBFRBRBDFRBUUDLLRL'
p381
aS'RBFLUFDRUUUDULRLUDBRBFFDUFRFDFDRFBBRLLFLBBBDLRBULDUDRL'
p382
aS'DDBRULFRUBRUBLRLFFUDLLFFRUDFBRURURLRLBDFBLBBBLDFDDUDFU'
p383
aS'RLBDUFLFRFUUFLBDRDLDBUFLFBBLDDURDURULBDRBUFBBRLFRDLRFU'
p384
aS'RRDFUBBDLLURRLDRFFULDDFULBLURURRBULDBLBLBUFDRDUBBDFFFF'
p385
aS'BDLDUDLBFRBUULFBLLLUURFBBFDDRFFRLBUDFRULBRRFRFBDDDUULR'
p386
aS'ULBRUDRRBRRUULDDFLLLFLFUUDFBFDDRFBLDLBURBFLBDFBFUDURBR'
p387
aS'DLDLUBLUUDURRLBLRRBFFFFDUBDBUFURFUFLBRLDBDFDRBBURDLFLR'
p388
aS'BRRFUUURRFFFRLUUBUFDRDFUFDBDLLLRBLUDURDBBLBLDRDLFDFBBL'
p389
aS'FFULUFFRDDDBBLRBRULDLBFFLDDBLRBRURUFRFBUBULLFRLDBDDURU'
p390
aS'LURBUFBBBDRDFLLRRBUUDDFULLRUDDFRLFLLFDFRBBUFULDBRDBRUF'
p391
aS'FDBLUFRBURBRLLRLFLBUDBFUBLDLBBDRDFRLURURBDFURFFUFDUDLD'
p392
aS'BUDRUFUBRULLFLLRURUBDFFDFRBRULDRRLLUFFLDBBFBDFRBDDUBLD'
p393
aS'LLBFURFLLFDDDLDBBULUBFFDUBRFLURRFUFDRBDBBUFRBRRDLDURUL'
p394
aS'RLLDUDLBBLRFBLDFLURFFFFRBBBDDDURRLLUDUUFBLRBUBUDUDRFFR'
p395
aS'LFLBUBLDFRDUBLLRFBBUDUFRFBURDBLRFBDLFRULBRDLRFUDFDRUUD'
p396
aS'BRBLUUURLURDFLDDBLLDURFBBURLFBLRFFLFRUFBBDUFRRDFLDBDUD'
p397
aS'DRUUULBDLUFRULDRURULFUFRLBRFRDBRLLDUFRLFBFBBDFBBDDFBLD'
p398
aS'DUBFUFRLLUDUDLLDDRLRFDFRBRBLBUURFRLFLLFUBBUBBRBFUDFDRD'
p399
aS'ULRRUUBFLFDUDLBFBBURLLFDLURFRDURRFLBBBDBBFDFLRFRUDDULD'
p400
aS'FRRLULDURLRDFLFUDURFLDFBBLLDUBURBDLBFBUFBDUDLBUFRDBFRR'
p401
aS'BRBFUUULRBDDDLFRBDDLLDFUDBLLRFURFFDBRBLLBUURUUFFBDLRRF'
p402
aS'FLFUUDBDFRBDULUUUURBLLFRBRDUBLFRBBRDLLBRBDRFDUFFLDFRDL'
p403
aS'BFBDUUFFLRUUFLUFUDRLLLFRDFRRRUBRLLDDLBBRBDFLUUDDBDBFRB'
p404
aS'UDDBULLFDRFFLLRLBLFDFRFUURBLFDURDUBBRUBFBLRRRUDDBDUFLB'
p405
aS'LFDRUBUFULFRLLRDUUFRBBFDLBRULBDRUBFFBLDRBDRDLFURLDUDBF'
p406
aS'DBRUUURLBLLFLLDRDFDRLUFLRDDUFBFRBFRLUFBBBRUBLDDFFDRUUB'
p407
aS'UULDULDUDFRBFLBUFRFUBFFLDRLRDBDRLFURUBRBBFFRDULLDDRLBB'
p408
aS'RULBUUFFLUDDFLRFDULBFDFRLUDFFRLRLRBUBRRLBLBUBBRUDDFDBD'
p409
aS'DDLFUUFRLLFBFLRRLRUBFDFRFBRLUUBRUBUBUDDFBBDLDFLBDDLRRU'
p410
aS'DLDUULBBRFDFULUDRLLDBFFRDLLRBUURDULBRFUFBRUDRLFFBDRFBB'
p411
aS'RRLDUBDFFULURLULFDDRBRFFUBRRDFURLLULFDRUBLDFBBDBBDBULF'
p412
aS'FLDDUURDLFRRDLULBLULDRFFLUBBBUFRLRUBBBDFBDDRFRRFBDFULU'
p413
aS'RFUBUFUUFBRFDLLRBBDUUUFLDBBLRLDRRDDRLDRRBFULBDFFUDLLBF'
p414
aS'BULLUUDBBRLFULFLFDURLRFULBRBLFLRDRFUDDURBRRDBFBFDDBDFU'
p415
aS'BRBDUUFUDLBRDLBUDDFBLFFRDRRFFULRLDRBUUUFBDRULBLLFDLFBR'
p416
aS'RFDLUUBDFLRBRLRFFBRDULFFUDLFBURRLDURLDDLBBUFRFBDUDBBUL'
p417
aS'RFBFUUFBUBULDLDDLBLFURFUFDDLLRRRLLRFDBRRBLRDBDBFUDFUBU'
p418
aS'RLRDULDDRBRDBLUBFBLRUUFRUDFRBLFRFUFDFULDBRBLFULDBDBLUF'
p419
aS'BRRLUBFLLUDUBLUDUDRFLRFFRFRDRUFRUURDBLBUBLFBFLDBBDDLDF'
p420
aS'FULRUURLRFFUDLLDBRFLUDFDBRBUBUURDDFDFLLRBUBRBDBRFDFLBL'
p421
aS'FUBDULLFUBLUFLRBLUDULBFFFLBDFDDRRFRFLBUDBDRBRRURBDUDRL'
p422
aS'FBUDUBBLDDRFLLLUDDLFRFFBRLDFDLDRURUFLUBUBBLFURFBRDRBRU'
p423
aS'RDFRURRLUFDDULLDDFBRDUFFUBBLDUFRUDLLLFRBBLFBRUBLFDRBUB'
p424
aS'LRUDUDDLRURLULURDFDLULFBDRBLBRDRUDUUBFRFBFFBBBFFLDBLRF'
p425
aS'UBULURDDFLLBRLULLLBFFFFUFBLUDBRRFDUDRBDDBLRFRFBUDDRBUR'
p426
aS'RBRBUDUUFFLUULURBDFDBRFLDFBBLLLRFFRUBDLFBRLFRDRUBDDDUL'
p427
aS'LBURUUFFBRFRDLLRLBUUDDFDLLLUFDBRUBULFRFBBBURDDLBRDFRDF'
p428
aS'DFLUUUDFFFLBRLDUFLBLBRFLBLRDDFRRUFDUUBLBBBLBUDURRDDRFR'
p429
aS'LDLRULRBURFBULRDLDBDFRFFFFURDFBRDUURULDUBBBRFBFLUDBLLD'
p430
aS'URDLULDDURBLFLFLUBDBLRFBLFBUDRLRBDFRFRUUBDBUFFLBRDURDF'
p431
aS'FRDUUFFLLBDRULBRLUUDLUFRLDRFBUDRUFLBBRLRBLDBRUFBFDBDFD'
p432
aS'DFLLUFBUFFRDFLURDFBLLBFBBBUUDRFRBULDBUULBRRURLRDDDRFDL'
p433
aS'FRFLUULRDBBRLLBDLRLUUFFFRBUBDBRRFLBLDUUFBUBLURDFRDDFDD'
p434
aS'LLBUUUDDRDDRRLBLFBBUDFFRFLFLULDRBRRFUFBBBFDBFRDULDRULU'
p435
aS'BUBRUBUBFLFRLLRUFRLUDFFDFDLRLFURDDURUDBLBBUBLDFBRDRFLD'
p436
aS'LRRLURFDLFRUBLUBFULRBUFDDURRBUURFDLDBDUBBDFFFLLDBDFRLB'
p437
aS'BRDBUBDBBRLFFLFLFLUDUDFRBLLDDBRRUDUURFULBDRLLFUFBDRFUR'
p438
aS'RLLRUBBLLFDFFLURBBFDUUFDBFLDRURRDUUBDFDUBLDRFRLUBDFLBR'
p439
aS'BRDDUUBLBLBFBLUUFDRRLDFLRUUBBRRRFLFLRDDLBBUUUFRFLDFFDD'
p440
aS'LFUBULLUUBUBDLLFBBRLDFFRBUDURFBRFUFLRBRUBDFDRDRDLDRFDL'
p441
aS'LDURUDDFLDLRULBFLDLBFUFDBDLDLBURRURUFFRFBLBBBFRUUDBRFR'
p442
aS'RRLFUFULDLRFULBFLFUFDFFDBUBLBLRRDUBBDUFRBLRDBULRBDURDD'
p443
aS'BLBRUBRDUUULLLDFLRDBDFFFFLURFFRRRLDRDBLRBDBBBFULFDUUUD'
p444
aS'RFFUUULUBURLLLLFDBRFUFFRBRDDDFLRLUBDUBBBBRLDRLDDFDUFBR'
p445
aS'BDDFUDLFBRULLLFRRLBBUBFLBFFLUULRRDDUFRUBBBRRFFDDLDURUD'
p446
aS'LLDRUFRLBFLRRLULDUUBBFFBLFUDUFBRBDLUBFDDBDRDLRUFRDRFUB'
p447
aS'DLRDULRFFFBBFLDRUFFRLDFBURBLFUBRULRDDRUUBLRDDLLUBDFBUB'
p448
aS'UULDULLBFURBLLLDFRRDBFFRFBBLDDRRURULUBFFBBDFDRDBLDRFUU'
p449
aS'BDURURUFFFFFBLFDDDFLLDFBULBBULURUDFRLLLUBRURRDLRDDBBBR'
p450
aS'UDUFUDLRBDBFFLRFLRRDBLFUDRURBBURUFFDLDFFBLLRULLDUDBRBB'
p451
aS'UBDFURRFRLLRULDBDFUFRLFUDRFLBDLRRURBBBBUBLUDFDBLFDDLUF'
p452
aS'DULRUBRURUFBLLFBFBLDRUFDFDBDBULRRUBFULLLBRDRRFDDFDBFUL'
p453
aS'DUFRURUULFUULLFDBBFDRBFDDDRLFBRRLUDBRBUFBUDLLLFRRDLBBF'
p454
aS'LFFFUDFBBRLUULLDFBLUDDFDLLUBBLFRRBRURDFBBURUDDBFLDRRRU'
p455
aS'BFBRURRLDLBDRLLULURBRFFDLFFUUDBRDBUFRUBUBBLLUDFFDDDLRF'
p456
aS'BUULUBFLDLLRFLRUDUFRRUFDBBDUDRFRUDFLFFDRBLBDRFRLBDBBUL'
p457
aS'DBRFULUDFDFFDLRULLLDBFFDFURLBBRRRFULULBBBLDFRRBBUDRDUU'
p458
aS'LUFLUBRFDRRLFLRBLULUBRFFRDDDFBDRRBLFUDUUBBLDRFUDLDBUBF'
p459
aS'FRLFURBLBFDULLBUBLBLDFFUFFDURLURDLRRFBDDBFDUBRURLDDUBR'
p460
aS'BUDBULDBBLFLDLBRFUFDRLFRBDLDBBFRLDLLFUFUBUUFFURURDDRRR'
p461
aS'FLLBULDLRUDFDLDLRUDDLRFLBURDBFURFURBDBBUBRUFRLFBUDBFFR'
p462
aS'RUUDUUDFRBLLDLRULUFDFFFFFFBDRRLRULBFBUUBBBDDDRRLRDLBBL'
p463
aS'LBFFURULLRRRBLLDRBRDDFFDBRFUFRURDFBFDBBUBFUDDUUBLDULLL'
p464
aS'ULULUFFRFUBBULBDBBLRLLFFBFUDULBRDBUDRUFRBDRLLRRFFDDDDR'
p465
aS'FFLDUDFURLBBFLDBURDBURFBLFLDRDRRLFDBULFRBUULRULRFDUDBB'
p466
aS'LBRLUUBFLULDRLDLFDDUFUFFBRLDBULRRUFFFUFRBLUDBRDBDDBRBR'
p467
aS'FFBRULDUUUDLULLBFUDDLRFBBBFRLLRRFDUBDBFDBULBFRLRRDFRDU'
p468
aS'BUUUULLFRRDBRLBLLLUUURFRLUDDFFFRDRFFRBUBBDDLBFBFLDDDRB'
p469
aS'LBBUUDFFUBDUFLLBBBRRDFFRDLRFFUDRRFLLLBRRBBFUDDUUUDDLLR'
p470
aS'DDDUULRFFFFBULFUDFLLLBFRBRBDDUBRRFRDLLRUBFRBLUBBUDLUDR'
p471
aS'FUBLURRLFLFLFLRDBLRUDDFBUDULLFFRUBFDDUFBBBRDRULBDDRURB'
p472
aS'LUDRUDLDRRDLLLBFFULUBLFFRLBBUDURFFRBFLFBBRUDUDFUBDBRRD'
p473
aS'RLDRULLFLUBBULURBFUUDRFDDFURUBBRDLLDLRFFBBFDURRBLDFFDB'
p474
aS'FRLLUFFLUDRFRLFDUDRBRFFBURRFBUFRUBDBDULUBBLLRBDBDDLUDL'
p475
aS'FRBFUFBURRBDULFUBLBDDUFDLFDBULDRLLDFRLULBRDLUFBRBDRFRU'
p476
aS'LBRBURUUDUBBDLUUUBLLDUFDFFLUDFLRFDLFDRRFBLLFFBRBDDRRBR'
p477
aS'ULULUFLDRLRLDLFRRLBBFBFUFRDUDFFRLULFBFBUBUDBBDBDRDURDR'
p478
aS'UUBDUFUBFFFUULLRRRBDBFFLBBFLLRBRRFRULDLUBFLURDBDRDLDDD'
p479
aS'FFFUUULDLFDLDLLBLLDUDLFRRBUFLBBRFBRBUBDBBUDFRRRRFDDURU'
p480
aS'UUUDUUDLLDFBRLLFRFDDRUFLFDLLFBURBFDURRBFBFBBRRBLLDRDBU'
p481
aS'RRDDULRDRBLLBLUUBFLRDFFRLLDDBBDRLFBUFUUFBFFDLRUBRDUUFB'
p482
aS'UUBRURDRFUBLLLRDLLRFFDFFULFBDLFRDRBRDDBBBBUUDLUBLDFFUR'
p483
aS'ULURULDBFLDRRLDFLBLFLDFBURFBULURLRBDFBBUBFRUBDDURDFDFR'
p484
aS'DUFDUDRBRDRUULRLDRDLFFFFLDDUBBLRLBLBRBFRBRUUULBBFDULFF'
p485
aS'FRLDULUFDDLUFLBRLRDUULFRBBRUUBURRDULFDBBBDBRLRDFBDFFFL'
p486
aS'LBBRUDLDFBLRRLURUDFRFBFDDLUFUBRRBBFUUFRFBDLULDBULDLDFR'
p487
aS'LULDUDRLDBBDULLURUFBBFFRFRURUFLRBFRBBUUBBFRFDRFLDDLLDD'
p488
aS'ULLUUDRLFUUDDLDDFLFUFDFRRFUURFLRBRLLBBBBBBDFBLFRRDRDUB'
p489
aS'RURUUBLBDFDUDLFDRUBBFFFLURUFUBDRLDBBBLDUBRRDLRRLFDLFFL'
p490
aS'LRLFURLBFRFURLFDRDRBFLFDDBUBUBLRLUURFLFDBBUFBDUBDDURDL'
p491
aS'UDURULDDULURDLFDLRFFBLFUBLLDDBFRBBRLFBDBBFFBUFRRUDULRR'
p492
aS'BUFBULRDBDDLRLLLBLDLUUFRRFFULDURFUURUBFDBRDBRLDBFDFFRB'
p493
aS'DLLFUDFRRFRUULBUBLLRBFFUBBLDUDDRUULUFDDLBFFFBRLBRDDRBR'
p494
aS'LRFFUFRDBRLRLLFUBBRDDBFLLRBUDURRLLFLDUDDBBUUFBBFRDUDUF'
p495
aS'UFRRUBLLRUUDRLDDBRRUBUFFBRDUDFFRDLLUFLLDBBFFDFBBLDRBUL'
p496
aS'LUBLUURFBDUDDLLRBDULFLFFFBULRFBRRLRLRBRFBRUDDFFBUDDBDU'
p497
aS'RBUBUFLRUUDFBLLFDBDFURFDFLBRUDBRFRUFLLBLBURRBLULFDDDRD'
p498
aS'RDRRUUUBBLUDRLLRLDUFBUFDLDFBFRLRDFRDFBFLBRLBDUUBFDFLBU'
p499
aS'RLFDUULBFLFURLBBLFDFDRFLUBUFRBFRDUFLRRBLBUDDBDURBDDRUL'
p500
aS'BBDDUDBULUURDLDLLUBURFFFLFDULLURRRRDBBFRBBFBDRLULDRFFF'
p501
aS'UDDBUDBFUFRFBLLDBRRRBLFLDBDLULFRDURBRUURBFLFRLDBLDUFUF'
p502
aS'BRRFURDDURDBBLDRLDUFLRFUFBRDLFDRBFUBDFUFBLLRLFUBUDBULL'
p503
aS'LFFUUFFBDULLDLRURUBBBBFRLUDFFRDRURBLUDFLBLBDBRFRUDLDRD'
p504
aS'RDDLURUUBBUFRLBLUUDBFLFDRLLBUFFRRLDURFLBBDRRFUFBFDBDLD'
p505
aS'BLBBUDULDLUDFLDUUDRFLRFLLDBUFLLRFRDRRBDBBRFRUFRFBDUBUF'
p506
aS'LFUFUBBDLUUBBLRDRDFDFUFLBDRLLDRRFFBFRLBRBUUDULLRFDBRUD'
p507
aS'DBURULUDLRDLFLLFUFRRLRFDFFRLUBRRFDBBBBUUBLDURFLDDDBBFU'
p508
aS'DBUDUBFUDFFLLLDFDLRFBUFLBUURFLRRLDRBBRRUBBRDLUFDLDRFBU'
p509
aS'FRRDUFBRBLFUULDLDDULRUFFLLDBFLDRBRLRBUDRBUDBFFLFRDBUBU'
p510
aS'LDFLUFRBLDBLDLRDUDFLFUFBUFBRLUDRDDRUURLRBUBURBFRBDFBLF'
p511
aS'RRBLUUUUFBFUBLFUDDRFBFFBFLLDDFBRBBRDLLDRBLRDRLRFUDUUDL'
p512
aS'LRLRUDRLLBDFFLDLBUULBLFFDUUFBFFRDDUBDFUBBBDRRRLFRDUBUR'
p513
aS'BRBRUUFUUFDDLLFFLDUBLLFBDULFRDRRFUBBRFULBDLUBLFRBDDRDR'
p514
aS'ULUBURFDLFBBDLDDUBBBLFFLDRUFULFRRRLDRRRFBDFUBUFLBDUDLR'
p515
aS'RFDLUURLUBDLBLRLBDURBUFBFBURUFURFRRBFFDFBDLDULDFLDRBLD'
p516
aS'FFBLUDRLLLUDULDLUDDRRFFFUBUBRFDRDFUFRLURBBUFDBBBLDRLBR'
p517
aS'BFDDUDFBUDRFFLUDURLLDLFRBFURLLBRULRFRBLLBFRUBBRFDDBUDU'
p518
aS'RRRBULFBLDBBLLUURFLBDDFUUFRFRURRLRLDDDLUBFFFUBDBUDFBDL'
p519
aS'LDFBUUFUUULRDLFRDBFLDUFLUFLBUDFRLBBLDFBBBBFRDLRUDDRRRR'
p520
aS'UBBDUDDURBLLRLURLLFUFFFBDDRLLFRRRLUDDFUFBBBFBRBULDRUDF'
p521
aS'RFBUUUBFFBBRLLURDFBLDFFLLDDFRLURLFBUUDLBBRLRUUBDFDDRRD'
p522
aS'FBUDUDDBRFBRRLRULULFLFFBFUBDLRFRULLBFLDFBDUDDRUBRDUBRL'
p523
aS'LRBFUBDBRBLRULDDBULLBFFUULBFDRFRRFDUUUDUBLFBRLRFFDRDDL'
p524
aS'LUBUUDUBULUULLRRDDBRFDFFDFLFRFBRLRBFLBBLBLRDUDFDUDFBRR'
p525
aS'UDFUUFRLULDLRLRBLRUUBUFBLLFDDDRRBDUFUBDLBDRRRFFLFDFBBB'
p526
aS'UBRBULDUFRFBRLLFLLDUFDFRUFLLRBURFFRDDDBDBFRDUUULLDBRBB'
p527
aS'ULLDUBLLBFFUBLFLBRFDBRFFDRUFBBURUDRRFRRLBDDDBUUDLDULFR'
p528
aS'RLLFURFDRDFBULBLUFFLDRFLUUURBLDRRRLDURLUBFBDUBFDDDBBBF'
p529
aS'DDRRUURFBFBBBLLUDFLFLLFURBFURDRRRUUDDDRLBBLFFULBUDFLDB'
p530
aS'BBFBUDDRRLLDFLDDRLRUULFRRDRUFFBRDLFULUBLBBFRUDUBUDFFLB'
p531
aS'RRUDUDUUFRLRBLBFFFLRDDFBRDBULLFRRDLLFUDRBFDBBBUUUDFLLB'
p532
aS'RBLDUUUUBDRFDLLFLFLUDUFFRFFULRLRRDBLDFBBBDURBRRUBDFLDB'
p533
aS'RBDBUUDLDDRLLLRUFUFDFBFDUUBLBRFRDBDRFFLRBUFRRBULFDLULB'
p534
aS'FRDRUDFRBLLLBLDBFUDLLRFFFLDUBRFRUDUUFDUBBFRLBBURUDBLDR'
p535
aS'RFUFUFBDLBURBLRDUDLBBDFLRUUDRRDRRUUBFLLDBBDFFULFRDBLLF'
p536
aS'LFFLUFUDBRDRDLLDUBLRDBFUFRRLFBLRBRLLDRUUBRUDBFFFBDUDBU'
p537
aS'DUDBUUBDBRFFFLRDLBLBRFFUURLFBUBRLBRURDUFBLRDLFRFUDLDDL'
p538
aS'LDRLUFFLULRDFLBBBBRUDUFFDRLRBDFRUULLFDURBLFBRBUUDDRFDB'
p539
aS'RFRLUBUUFBRFFLULFFURDDFURDBULLFRRDDLUBRUBBDBBDDFLDRLLB'
p540
aS'DFLRUFLULBBUFLRDDRBLFRFDRDUUBBLRBUFDFLRLBUFDRDULRDBFUB'
p541
aS'RBDFULDUURLLDLRLDDBFBBFRFRLRUBBRFULLFFBBBRFURULUDDUFDD'
p542
aS'LLRUUBLDUFBUULFLRUFFBBFFBFBDDDRRLLRFBUDDBURBURLDRDLFDR'
p543
aS'ULRLURRUFDFBBLDLFBDRLUFFLLBFUUBRFUURDDRBBRURFFDBDDBLLD'
p544
aS'RLLRULRBDDFDBLFURULDFBFURDFULDRRLFBFBDBUBFLRLRUBUDDUFB'
p545
aS'URDBUDLDLBRFLLUDUBRBLDFLFRDLFFDRRUFBRBULBUDURRFBLDFFBU'
p546
aS'DRDLULFULBRRDLBLBFBDLUFDDFRBUULRBRUFBFUFBDULDRFURDRFBL'
p547
aS'BRFLUDBBBDBDULURDRFFDLFFUBULURBRLFDDLDRLBFLRLFFURDUURB'
p548
aS'BDFFUUDLRRFDBLLBLUUBRFFRFULLLBDRFBUFLUURBBDBDFRLDDDRRU'
p549
aS'RBBFULRDBFULLLDFDBUFUBFRDFFLLDRRLRBLDFUBBDURBLURRDUDUF'
p550
aS'BLLLUFBBLFUBFLBLFRFRDUFDRUUDLRBRRDRFUBRLBDUUBUDDRDFLDF'
p551
aS'LDDRURDBLBRFLLBUBFLLULFUBULDLBURUFDDRDUBBRFFURFBFDDRFR'
p552
aS'DLRBURBFRLLDBLUDBLLRBUFUFDRUFDFRRLBBFFUDBLULUBDFDDRFUR'
p553
aS'LULBUDDBBLUBULFURDRDFFFRRRRBFFBRLLBUURBFBLRDUDLFDDLFUD'
p554
aS'URBRURLBRRFLBLFBDLDLFUFBBRDUDFFRLRDUDUBUBBFFDUURDDLFLL'
p555
aS'BBUDULUFFLURDLLDBUBURUFLRFBBLLBRRFRUFFDUBFLBRFRLDDRDDD'
p556
aS'LBRFULURULRBFLLBUDLRFBFURBFDURDRDLRRDFFUBDBBBULDFDDULF'
p557
aS'UDDFUBUURFDFLLBRBRFRBDFLBULLRFLRFUFDRFLUBBBRLDUULDRBDD'
p558
aS'DFFLURRUFLDRBLLBULUBBDFURDBBRUURRLLRDFFFBBUDFULLRDBDFD'
p559
aS'FLRUUFRDUUBDULBUFLFRDDFBDLURUFBRRDFBFRRUBFLLBBRLDDLLDB'
p560
aS'BBFLUDFRUBURRLDDLLLBULFFRFRBDUBRDFURDFDLBFBBLLUFRDUURD'
p561
aS'UULDULBRRFUDRLFBFLDLFUFFUFLBRUDRDLDFBBRBBBDBFUURRDLDLR'
p562
aS'DFBBUULBULLDDLRFFRDUFLFLLBBBUDLRDFFRRDFRBBBDUURLRDFRUU'
p563
aS'DRRFUBDUDUBFBLDRLBDDRFFUUDLBFBRRRLUFUUBDBRLLULLFBDLFFR'
p564
aS'DDULULRRBFDBFLLFULUFBBFUBDFDBDRRUFFLRFLBBDURLDLRRDUUBR'
p565
aS'RRRRULFULRRFULFBDFRBDLFBLFLUDDLRRBLUUDDFBFBBLBBUUDUDDF'
p566
aS'LLLRURLLDUBFBLFLRBUDDUFFBFURDBLRURFRDDFUBBFUBRLFRDBDDU'
p567
aS'DUULULBBLFFFBLRFLBDFRRFBBLULURFRDFRULDRDBRBBRUULDDFDUD'
p568
aS'UFDLUUUDBDUFBLRUBLRLFDFURRBUULLRRFDDRBBFBDLBDRRFFDLLFB'
p569
aS'LBUUUBRURBFFLLRLLDBBFRFLUDUBBFLRRBUFLDRUBRDFLDDUFDDDFR'
p570
aS'RDBDURFRDLFDFLLUBFBRDUFRFLRLBUDRFBUFRDBUBFLLUDLRUDBLBU'
p571
aS'ULLUUBDDBBDBRLBRUFDLRLFFLFBFRRURBLFUULDRBBRDULDFUDFFRD'
p572
aS'UDLUURLUFLFFFLFLDRULBUFFFRUUBBRRBBLDDRBUBBRBDDLFDDLRDR'
p573
aS'BFLFULFRFFUFDLLLLDBBLRFRBDRDRUFRBRDUDFDUBULLURBUBDUBDR'
p574
aS'FFLRURUDFRDURLLLULDBDLFBUUBBRLURLDFDFBUFBDRURFDBFDBBLR'
p575
aS'DURRUDLDDUBBRLFDFRLDFFFDBRFUBUURBUBLDLFLBFBUBRUFRDLRLL'
p576
aS'RRLBUFRFRBRBRLULFDULBUFUDDBFLURRDDDUUBDUBBFBLLDFLDLFFR'
p577
aS'RRUFUDLLURUBBLUDLFLUDUFLDDBRLDRRBUDLRFURBBFFLFRFDDBBFB'
p578
aS'UBRRULULDFUUFLUDDBBRLLFFFBFLRRBRURLFBRDBBFLFBRDLUDDDDU'
p579
aS'BFFBUUFDLLBDDLURFRDLDRFLURRLDURRFRFBLUFLBDDRUULFBDBBUB'
p580
aS'LFDDUFLDLBRFBLDBLFUDURFRRBDFRFLRBBUBRFULBUDBDRLLFDURUU'
p581
aS'ULDFUBBBBULRFLBUULRRFRFRRLUDDRBRRLUDBFBDBULFFLDFLDDDUF'
p582
aS'DLUDUFURLRLBBLBBDLDBBRFRRFBDLLURBLDFRUUDBRULFFURUDFDFF'
p583
aS'FBBBUUFDRFFURLLLBRDUUUFRLDDULRDRBRFDLLLLBDBUUDFBRDRBFF'
p584
aS'UURFULFRUBUUBLFDLLRDFBFRDLLBFDBRDRBFBRLUBFRRDUDBDDLFUL'
p585
aS'ULDUUDURRFFFULDLBRUDBFFFDRBLBLURUDBDRLRRBFBLBULFDDRLBF'
p586
aS'URDFULFRUUDLLLFLLFDFRDFUBFUDDLBRBDUBFBRDBLLRFBUBBDRRUR'
p587
aS'LDRFUFRRRDBUULFLFDULFLFRLRDBDBDRBFDFBLLUBRDLUBBFUDURBU'
p588
aS'BDBFUULDFLBDLLBBRUUFRUFUDFBFDDURRFRURLDLBFLBUFDLLDRRBR'
p589
aS'DFFFUUUDRLBUFLLFULLRBRFDRFBUULURRDLFRLDLBBDDRFRUDDBBBB'
p590
aS'BRRLUBFBLFFUULULDDUFLDFDLRDFFRURLRRUBURRBFBDBUBFLDBDLD'
p591
aS'UBFDUURLFFUDULUBLLUDFBFRDBBBDUFRBBRRLFDLBDUFDRRLFDRRLL'
p592
aS'DFRBURLRULDFFLDUUFBFLUFDRBFBLUBRDRFBULBBBULRDDLRLDRFUD'
p593
aS'BUDFUDDLLFUFBLRURDLFLLFDDLBLFRBRUUUFRBRRBDUFBULBBDDRRF'
p594
aS'DRUUURBLDDFLDLFBBRRUFRFFUUDRLLBRBUFBBLFBBDRDFLRULDULDF'
p595
aS'RLRDULLDFDUBRLDBRBLBURFFUFUFUBLRBFUDDBFFBFRLULUDRDDRBL'
p596
aS'DLUFUFUFRLLLDLUUBRBUFLFDDRLBBFDRRULDBFDUBRBDRFBRUDBFRL'
p597
aS'BLRFURFLUFFDLLFBRDDDLLFDBRLRUDBRUBDFFUUFBRRBULDRBDBLUU'
p598
aS'LLRRUDLLUUDFBLBDBDFRFUFFDRBRUDDRFLURULLRBUBBBFDRLDFUFB'
p599
aS'BLFRURBBDRUUFLUBDDULLDFFULUFBRBRUDRFRFFBBULDRDLLRDFBDL'
p600
aS'FFLLUFFUBLRUFLDRDRUBUUFDLBDFRRLRRRLDFDULBULBBBRBFDBDUD'
p601
aS'LFDDUBBFUURFBLRLUFDLUDFFDBLRLUDRLFURRUFUBRBFDRRBDDBLLB'
p602
aS'RULLUDLUFBFBRLBRUFUFDDFBDFDRRFLRRLRRULDFBLUDULBBDDBFUB'
p603
aS'LBBLUFURLRFUBLULLBUFDUFDRRRBDBFRURBDLUFRBLFDFDRFBDLUDD'
p604
aS'BRFBURFUDBFRRLDLFRBUDUFLRFUFDLDRBBDFDRUBBFLBLRUULDLDLU'
p605
aS'RURUUFUDDFLDDLBBBURLFBFFUUBFRLFRBBULFDLDBLBLDDRUFDRRRL'
p606
aS'DLRLULDULBDFBLFFFBLDRRFDBDRLRFBRFDBUUBUUBRBRLRLUFDUFUD'
p607
aS'UFULURDBDLBFRLUBDRDLBBFFUDRRFFRRDFULLLUUBLBBDBFRUDRLDF'
p608
aS'FBRFULRBLUFDDLLURURDLLFRDUBRRUURRLBDFUBFBDFUDLFFBDDBLB'
p609
aS'RRUFURDLLRUBFLDLLUFFFBFRUUBLRRURBLLBRFFBBDDDUDDDBDUFLB'
p610
aS'UFDBUULFRURFFLRRULBRFRFUDBBLLDDRDUFBRDFLBDUULRLDBDBBLF'
p611
aS'RRRBUULRBDUFLLUUUDFBBRFLDLUBFBDRBFFUUFFLBRRDRLDLFDDDBL'
p612
aS'FRDDULRDLDDRRLBFLLLUDFFRDBUBUFRRLUFUBBRFBLBUBFUUBDDRFL'
p613
aS'DUBLUBLBDFLUULRBFLRDBDFURRFFBUFRLDDRLFLUBDFBRDFURDLBRU'
p614
aS'RFDBULURRDFLBLRFFDLLBRFLBLRLDBURULBUFDRUBFFDBFRUUDDUBD'
p615
aS'RFDRUBBDUBBLULLBDBDBUFFDFFLRUUDRFUBFFUDRBURLFLRRLDRLLD'
p616
aS'LBRFURDRLRBFDLLLRDUBFLFUDFRRLFDRFBBUUDBUBUBULURFLDDDFB'
p617
aS'RDLUUDRBRLDFFLRDBFBRDLFRUFUFRFLRURLBDBUFBDUFBBULLDUDBL'
p618
aS'FFLBUBRRRFFDFLLURLLDDDFLRBFBRDDRURLUBUUUBDFUULRBLDBBFD'
p619
aS'RFLLUBBDFUBFFLRFUFLRDLFDLURDFDURRBBRDDBLBDURRLLUFDUUBB'
p620
aS'LLDFULBURBBLFLDURFBDURFURBLBLUURLUFFFUDFBDDRRLDRBDBFRD'
p621
aS'UDFRUULUFBDDFLLDULBRFLFBFRURDBLRBUURLBRLBFUFBDRLDDBRFD'
p622
aS'UBFUURLUDDLDRLDBLBRULDFBRUFFFULRRLBBLFRDBLRRDFFUBDFBDU'
p623
aS'FUDBUUBRBUBFBLLBLURFLUFRDLRLDDFRDUFDRLBFBULDRLDURDBFRF'
p624
aS'UFFUUDURBLRRFLRRDRFLBBFFUBLLLFURDRRDDBDFBBLUBFLUDDUDLB'
p625
aS'FBBBUUDRLLURDLRRLDBBRRFDLLFDFLRRUULFUBUFBUUDRBFDLDDFFB'
p626
aS'BFDUUUBDBURFFLRFFDUULRFRLLLUDUBRBFDRRBRBBLDFDBLRUDDLLF'
p627
aS'DRUFUUUDBUDLFLBUBLRLBFFLFDLRBFURFFDRBRRLBRDLDBRFUDULBD'
p628
aS'RRLBUFRBURLBRLFDLUBUFRFUBFBDLUDRLDFLUDFDBBFULDULDDBFRR'
p629
aS'DDLLUULRBDUUBLRRURFFFUFDRDUBFBBRFRBDFRFBBFLDULRULDLBLD'
p630
aS'RFBUUDUFDLRUFLDLBBFRUBFFRULFLFRRLDURLUBBBDFBRDRDLDLBDU'
p631
aS'FLLFUUFULLFBBLURDDURRDFRRRLBBDFRFURBUDFBBBDURULBDDLFLD'
p632
aS'DFLBULFBDFDULLRRLFUFLDFDBFDUURURUBBLFFRUBLBRDUDBBDRRRL'
p633
aS'LDDUUUDDLUDLBLRBUUDLBBFBRFRFDFRRLLLBFBRRBUDFUBRRFDLFFU'
p634
aS'RBUBURFLURUFULLRDUUFFRFDFFLRUDFRUBFBLBDDBDLRLBRBLDBDLD'
p635
aS'FBRLUDULLLDBULDLBDBLRDFFDBFBURRRURFDDRFFBBFRUUFURDLBUL'
p636
aS'BLURURDFLUBLBLDBFULURFFFFUBRLRDRDDLFBRFDBUUBLRUDRDLFBD'
p637
aS'DFRUUDFRFLLBBLLUDRLLFFFLFBLLRDFRUUURDBBRBFUBBDDBRDURDU'
p638
aS'RUUBUBFDBRDBRLRBDUULFLFDFULLBDFRRBFDRFFLBLLRDDBLUDFRUU'
p639
aS'FDDDUUDBFBRFFLRRLLUFDRFBRDLFLBDRUDLURBLLBRLBRUUBUDFBFU'
p640
aS'FLULUUBRDRRFFLUUBDLDRDFBLURDRDFRFRUFLDBBBRLFFULBBDLUDB'
p641
aS'ULLLUULLDRDFBLDUURRLBRFFFRULFBURBBDRDBDFBUFFLBRFRDDDBU'
p642
aS'URFLUDRRDDDDLLFRUBUFLBFFFBDULBDRUFURLBLRBBFLLBDBUDRUFR'
p643
aS'LBFRUBLDULBUFLDDFFFLUFFULLDDDFRRRDFRRUULBUBRRBDRLDUBBB'
p644
aS'UBRBURLRRLLDDLUDFBLULLFDRRFBDUBRFURUFFBUBDFBBDLFFDURLD'
p645
aS'LDRLUDLLUDUFLLFDBDFUFDFDRFFBRUURFUFBURLRBBLUBBBRRDBRLD'
p646
aS'FBBLURBLFUUDRLDBBDLURBFFFUUDFRDRDLURRRBBBFULULFDDDLFRL'
p647
aS'LLLBUBURURFBDLDFDFDRURFLRLFBURBRFDLRUUFRBDBFBDFLBDULUD'
p648
aS'BDDDUDLRFUBFFLFDLLRUURFBFBDLLFFRDLURRURLBFURDBRBLDBBUU'
p649
aS'RDRRURBRBFFDULLFUUDFFLFDRBLBRUBRFBFUFDUUBLRLLLBLBDUDDD'
p650
aS'BBDDULDRFRLBDLULLUUDRRFFDBBLDRFRBUBDLFUUBURLLFRFFDUBRF'
p651
aS'FDFRULFRRFRUBLFUBLBLDUFFLUDBLRBRDDLDRBUFBUBDBLDRRDFLUU'
p652
aS'LLURUDRFDUBFFLUUDBLLDBFDDRULFFRRDRRBLLRBBURBDBLBFDUFUF'
p653
aS'UBURULDBBDRRLLDDRLFBFFFULFBFURFRLRLLFDLFBUUDUBURBDRBDD'
p654
aS'DDDUURLDRUDFFLBLLFDULUFBRRUBBBURLURURFLDBLFFBFLBBDFRRD'
p655
aS'LBLRURRDBFRUDLLRBDUUFRFULFUDLFFRBUFRFDDBBUDDLRLBLDFBUB'
p656
aS'LUBDULFDUDUURLFRFBBLDLFRLDLUFDBRBRRFLBRUBRRBUFFDUDDBLF'
p657
aS'DBRUUFUUFFRDFLDLUBBBRRFFBBRLLBDRLURLFBRLBFDDFURUDDULLD'
p658
aS'RFDRULURLDUBFLLDBBFUULFURRBFBLRRDDBFLLFDBDUDRLURFDBBFU'
p659
aS'FFDRULLRRRURULDBFULULBFFLBUFRBURDFBBBRUDBLULRFLDFDDDBD'
p660
aS'FFBLURLDBLBDFLRLFUDLLDFDFRURDBURFFBURLDBBURUUFUBLDBRRD'
p661
aS'DRUUUBLBUBDBRLFUDLLBBFFLFUDRFFLRURLLRFRRBDFBFDUBRDLUDD'
p662
aS'LRBFULRLRULURLBUFDFDFFFRDUBRRUURBBBFLDFUBLDDLRDLFDUDBB'
p663
aS'UBBUULDRRUUDBLDLUBURLDFLBRFRBLLRFBDFRFFFBLDFLRUFBDRDDU'
p664
aS'BDDBUBFBFRLBBLLLLUUURDFUDFRFRUURDUFLLFDLBUDDLBRFFDRBRR'
p665
aS'RLBBULLDFBRLFLUULDBFBUFRUBDRLFURRRDUDFLDBULBDUDRFDBFRF'
p666
aS'DBDDUDUFBDULRLDBFRUUFUFLLDFURRRRRRLRFBLFBBDFUBBLLDLBUF'
p667
aS'RFUBURURRBFRFLUBRBUUUUFLDDLLLFBRDDUFFRRBBLDLBDDLFDBLDF'
p668
aS'LBBRURDFRBDUULUFUFDFUFFBBLLDBBRRDULFLLUDBDDURRRLBDLFFR'
p669
aS'UDULUFDBFBBRRLLDRLFUFLFUULLLBBDRRBULFDURBFDBDRDRUDFRFB'
p670
aS'LFUDUFFRLRRRRLUFFFDLUDFLBFDLRRLRBUUUFDDDBLBBBBULBDBRUD'
p671
aS'LBUBUFRDBFBFLLRBLDDUFFFDRLBFBUFRRLLLLUDUBRUDDRFRUDDBRU'
p672
aS'BDUFUBRBUBRRDLRFBLRRURFLDUBRLUBRLFDLFUDUBFFLDLFDUDFLDB'
p673
aS'ULBDUULDDULDBLDFURDLBBFRLUFBRUFRFFDLRFFFBBBBRRULLDRDRU'
p674
aS'URDLURDDBBURRLFLUFFBRLFBLRRUDFDRFLULBLUUBLUFDRBDFDDBBF'
p675
aS'FBRLUBLRLULDBLULFRFUUDFDDDFRBUDRFDUUFFRRBUBRBBLDLDRLFB'
p676
aS'RUBDUFLDDDLUBLRFBBDRUFFRUUBFLDURLUDBLBRLBFRBRFULDDRFFL'
p677
aS'FBURUFBLULRRBLUBLDDFRDFDUFLFDURRULURFBDRBDBFDFLRLDBBUL'
p678
aS'BDBUUUUBDUFRDLLFLRLFDBFFDLFLBRBRRFRLURBRBUBDRLFULDDDUF'
p679
aS'RLUUUDFFDDULRLFDDUBRFLFFBBDRLRRRDLRFBBBLBBLUURFLDDUFBU'
p680
aS'RFFBURLRUUURLLDRLBBUURFRRLDFDFLRULUBDBLDBBLFDFFDDDFBBU'
p681
aS'FRLUUUFDULFFRLDBDUDBLBFLFUDURRLRLDFRDDUBBFBRBBBRUDLLFR'
p682
aS'LRLRURFUUFDBLLDDUBFLDBFUDRRLBUFRFBBRULUFBLBUDLBRFDDRDF'
p683
aS'BLUDULDLBLURULUBFDRRLFFBFURLRFDRBFRRFFUFBDDBDBBURDDLLU'
p684
aS'DRUDUDLDDRRBULUUBRLUFBFFBLDDBFURLFFLRDUBBRBLLFLBFDRUFR'
p685
aS'UUDLULLLBURFLLFFUBDBLBFURFBFDDRRBFRRRURFBBDFLBDLRDDUDU'
p686
aS'BURDURBULFFBLLRLBUUDRFFFBRDUBLLRBFLDDURDBFFBRUUFLDRDDL'
p687
aS'RLRBUUUDFBBBDLBLRBFDUFFRRLBDFLDRLULUDUDRBULURLFDFDRFBF'
p688
aS'RDULUBLLRRULRLRRBUDDFBFBFDBLFDLRDFFBBFDUBRULDBUFFDRLUU'
p689
aS'RDDRULLRBLBBDLLRLUDFFBFFUDUBFBBRUFURLRDBBLDFLFRFUDDUUR'
p690
aS'BRLFUDRDBLRFRLDRUDBBLLFUDUUFLFFRBLBUDBFLBRRLBUUDFDFUDR'
p691
aS'DDFRUBBRRLULULBLLRFUFRFDBRRLBDFRFBLUUBULBFFDRBFDLDUUDD'
p692
aS'BLRDUFRFLLBDLLURRUBBRLFLDUUBFFURRDUUFDFDBRBRLUFDDDBFBL'
p693
aS'BLRUURDBBUDBDLUFRUUDRFFBFBFRLLURRBFLDFLUBDULLFLRBDRDFD'
p694
aS'BDRUUDBRLULDULBDLUBFRRFLUDRLRDFRBLUDFBFLBFFBURFLDDUFRB'
p695
aS'FLLDURDDDDBBULUFBRLLUFFLRFLBRBFRRUDFUURBBFLBBFRULDURDD'
p696
aS'BBFUURBDDFLDLLDDBLRUUUFRUFUFLRFRRFFLLBRBBFBURUDBDDLDRL'
p697
aS'LRBUUBRLUUFLULBUUDRRFDFLBRFDFDLRDRDBDLLUBDLFUFFFRDBBBR'
p698
aS'RDDFUDBRFDUFFLLBBBDUURFUDLLLBUBRDRBURLLFBRLRFBLRFDUUDF'
p699
aS'RBBRURFFLUURFLLLLDBDBRFULRUDDLDRUFBDUBFBBUFDRRLULDFDFB'
p700
aS'URUFUFULURDLLLUDLLFFFRFRLUFDBRBRDFBRBFDUBUBDDBBRLDDLRB'
p701
aS'LBRRUBUDUDFBBLLLBBBDDRFUUFFFURURLFLRDDFRBDBFRLUURDFDLL'
p702
aS'RRRRUBRLLUUURLDUFDLUBUFFFFFDLDLRDLFBBRFDBLDDURBBUDBFBL'
p703
aS'LUBDUFFUULRDRLBDFFLRUDFFULDRBRURRLDRRBBLBUBLBDDFLDBUFF'
p704
aS'DBBRUFFFRRBUDLDRULBBBRFDLULULDLRDFFULRBLBRFURULDUDFDBF'
p705
aS'ULRFUDBURLFBLLBFBLDRFUFRFRDUDLDRRRFBDLUBBBUUDBDLUDLFFR'
p706
aS'DLFLULRURLDLRLBURBBBRFFDBFUURFURLBUFUFDFBBDBLFDRDDUDRL'
p707
aS'DUUBUDRDRBFFBLBLRLFFBFFDLUFBLDBRLUUBLDRRBUURRDRDFDLFLU'
p708
aS'RRUFULRDDUFBLLUDDFRRDRFLLBUULFURFDFFRUBUBDLRBLDBBDBLBF'
p709
aS'BFURURBLFRLFBLDLBRDRDUFUBRLRDUBRUDLRLBFFBDUFLDDBLDFFUU'
p710
aS'BLDBUBFRLUBFULBRFUBURFFDLRRDDULRFLDURRLUBUBFFFRDLDLDDB'
p711
aS'LLDFURLFDDDBULDDRFLBUDFLFUUURBBRRULBLFRDBBRUBFFFLDBRUR'
p712
aS'RFRDUDDLDRUBDLLLUBFLUDFRURRLFFBRBURLDFULBUBUFFFDBDBLRB'
p713
aS'FDUDUUUFBRRFFLRLRDFBRFFBRLBUDLBRLBUDLUUFBLLBDFRDUDDRLB'
p714
aS'FULLUUDBBBDBDLRLFRUUUFFFFBRDRFLRDBDUUFRLBBRRLDLFUDRDBL'
p715
aS'LLRDURFRUDBUFLUBLBDBDRFFFDLULDBRFFRBBURBBFLULFURLDDUDR'
p716
aS'DDFFULRURLRDFLLRDLDBBUFUBRUDFFLRLFDBLBUFBBURLBDFUDRUBR'
p717
aS'BFLRURRURRDBBLRLDUFFRLFUBUULLFRRFUFDUBFDBBBLFDLDUDDLBD'
p718
aS'BFUUUUFDFBDRLLUBRUUFRFFBDRDLURBRBBRUFFRLBBLDLDDLRDLDLF'
p719
aS'LBDLURUDUUURRLRRUDDBFBFDBLLLBFFRRLURBLFUBDBFBRFFFDDULD'
p720
aS'LFBFUBFDFBLUFLUFDBDBDBFRBLURULLRRRRRLDRUBFUUDDLLDDRFBU'
p721
aS'LRLUURUBUFLFDLFBFFDDUFFLLLFDFRLRUUURDDDBBRBRLRBRDDUBBB'
p722
aS'LRRLUDDFRUDBULUFFULLBUFBFDRDFFFRULDUDRRLBBFBDBLURDBBRL'
p723
aS'BDFDUBBFFLLDULRRBDBRLLFBUDUFFRURUDFRLBUUBRULFBLDFDDRRL'
p724
aS'LLFUULRDULBUULBDRDBDFFFRDFFRLDFRFLBRRRFDBUBDBUBLLDRUUB'
p725
aS'UBFLUDRLDDLUBLDDURFRBRFULDDBLBFRBFBLRFFFBDBULLRRRDFUUU'
p726
aS'LUBUUBBRRRFLLLFURUBDBRFLLLRFBDLRFUBFDDURBBDDFFFRUDULDD'
p727
aS'UUFBUUUBDBDUULLFLRLFBBFDBFBLRLFRLFRRRFRRBLFDDDBUDDRLUD'
p728
aS'RUFLUFDUFURUDLRBRDUDBDFFFUFRBLRRLBLURBRUBLLDLBFLBDBDFD'
p729
aS'DRLUUFURLDLUULDBDRRBFFFBBLFLDRLRBDFUFBBRBFBLLRRUUDDFUD'
p730
aS'DUBFUBLLUBRLDLRDLBFURBFUFRFDDUBRFRLRDFLLBDBDFUBRFDRUUL'
p731
aS'BLBRUDLUFDFUDLBRDDUBLRFBFLFUDUURBDLLLRRRBUDFRFFBFDUBLR'
p732
aS'DLLRURFFUUBBLLDRUBDBRUFFFRUDDLFRULFRUDFBBLBDDRBFUDRBLL'
p733
aS'DDBRUBBRFRDDULFFDRDBFBFUBRUUDRURFLLURLURBLLFDFBLUDLBFL'
p734
aS'FUDLUULFFRUFDLRDDRBBURFBBRUDDBLRULDLRLBBBFDLUUFLRDBFFR'
p735
aS'RUBFUDBBBFFRULLFBULRFFFRRUDDBLLRDLFRULLRBLDDBDRUDDUUBF'
p736
aS'FLULULDFFRBLLLFRFLFRDFFDRRLBDBURDBUUBDFBBRLBRDUUBDUURD'
p737
aS'DFFRUBFBLLULBLDBLRRDFLFFULLRUDRRURRBUFULBBDUBBDURDFDDF'
p738
aS'UFBDUBFURUBLLLUFRFDDRDFFUFDFRRBRBULDDDBLBUBFBLULRDLRRL'
p739
aS'BDFRUDLLBURDULFULLBUUBFDRBFDDUFRFBBDLUFLBRLRDRBRFDLRUF'
p740
aS'UUBRUFLFRFRLFLBUDLBBFLFDLUDBLFURURLDDFRDBRBBDULRBDDFRU'
p741
aS'FLLLUFUFRLRUFLBUUDLFRBFUBDRDLBRRRDBUFDBDBBFDLDLBRDUFUR'
p742
aS'FRLFUUUDDBBUFLDRRDFBRLFRRDBUBLLRFDRLFURLBFBULDLUUDDFBB'
p743
aS'RRLLURLDLDLDULBDRUFFFLFFDBULUBFRBRUFBBBDBLUFURRRUDDBDF'
p744
aS'LUBDUDLDLUFRRLLFBFDUURFBDUUFRBFRLDDBULFRBLDFRRBLBDFBUR'
p745
aS'DULBUBRDFFDUULFLRRDFFLFURLBBDURRRULLFFRDBUDBLURBLDFBBD'
p746
aS'FURDURLBFUBFLLFBLDUBRFFLDBDRDFDRRLUUUURUBDLLDBFLRDRBFB'
p747
aS'RRFLULDDUDLUDLUUBDBUBFFBFRFRFLDRLFRBRFLUBRLDLBBRBDUUFD'
p748
aS'UBLFUFBLDFLBRLUFLRRDBBFLLRRUDDDRBUBLUULUBRBRRDUDFDDFFF'
p749
aS'DBFLUULBRLDRLLULUBUFRRFBLFUFRBDRRFRBDFBLBFUUUDDFLDDRBD'
p750
aS'FBBUUDDLFRRRFLLRDUFLLRFFBRBLURBRUUFLUBFFBDDRLDLUBDDBUD'
p751
aS'FBRUUUDULDRUFLDDFLRRDDFLLLRBDFBRRRBFBDLBBUULFBLBFDFURU'
p752
aS'UFLRUBBULULUFLDDBRBLBDFDDURFFDURBDFUFUFRBDBLLRRLLDBFRR'
p753
aS'DLRLUUBFBLBFULBRFFDULUFFRRRUDDDRDLFDURURBDLRUBBFBDLFLB'
p754
aS'ULFBULRDBURLLLFDLBFBLBFDLFUDDFURRFURUBRUBRDFDBDRFDULRB'
p755
aS'URFRUFLDRULRBLDRFLULFFFULBDBUFBRBLUDDUFDBDBFDRLBLDRBRU'
p756
aS'RRBBULBFDUDDDLFLBFBUDDFRFUUDFRDRLUULRRLBBUBLRFFURDLFBL'
p757
aS'DLDRUBUFDUDFULBUDFBFLLFUBRLUDFDRLDRLRBFRBUBFRRFRBDUBLL'
p758
aS'ULDFUDBLUDRFBLUDLBLDLFFRRUUFBRURFDRLRDLBBLFURBRFBDDBFU'
p759
aS'FFDDUULRDLULRLDBBRDLUFFLDUUBBBURBBDRFRFLBDFBRUFRRDLUFL'
p760
aS'UDLLUFBRBUUFULLLRFUFRBFBDLRFFDFRULBUDLBUBDRRDLBFRDDBDR'
p761
aS'LFDLULLBFBRFFLLUUDRLFUFBRRBBDDBRUBFURFUDBRLDURUFBDRLDD'
p762
aS'BDLFURLUFBLUBLFFRRDBDUFUUFBBRDLRRUDDFBLDBLRLRUDLUDBFFR'
p763
aS'BRFBUFFBDFUDLLUDUUBLRRFLRLUFDLDRDBBBLFDDBBRUURFLRDFLRU'
p764
aS'LBLRULFFFDUBRLLBBFDDUDFBBRDLURFRRRFRUBFFBUUDULDRLDLBUD'
p765
aS'FRBDULFFULDDDLDDUDBFRBFFRURURUFRLDBLRBUBBUFRLBLLLDUFRB'
p766
aS'LFFBUUDBBRLRLLDFRDLFFLFDULLBBBRRRBBLDDUFBDUUDFUURDFRUR'
p767
aS'RDRLUDLBDUFFLLRUUDBBBFFDBFULRBURRFRFUDLBBFLURFBRLDUDLD'
p768
aS'UDFUUUDRBBLDBLFBFLLRFBFLBDRRBFURBUDRLFLFBDDRRULDLDUFRU'
p769
aS'FBBFURLLRBLUULLUDUBRLBFURDDFBFFRFFFDLUDBBLBDRLRRDDUDRU'
p770
aS'DRFRURFDUBFDLLBUBRRDFLFURUUUBLFRLBDBLUDFBDLFDLUFRDBRLB'
p771
aS'DULDUBUFDUUUULRFFLRRBRFRBLFRBRURLLLBFFBDBFRDFLLDDDBDBU'
p772
aS'BDRUULFBLLLFDLBUFRBLDUFRLLDUBRRRRDFDUUUDBUFDBBRRFDBLFF'
p773
aS'BRUUUFFBFUDFDLFUFLRUUFFBRRLBBDRRDLUDLLRDBLRLDBRFBDLBUD'
p774
aS'LRFDUFFLFLFLULURBBUDDBFLBDRDFUFRBRRLUUULBUDDDBBBLDRFRR'
p775
aS'UBFBUDDLLRFDFLRDULRBFUFDLLRDUFDRDRBULLBFBRBLFUUBFDRURB'
p776
aS'RUFLUFDFBDULBLFULFLUDLFBURFRFLRRLRBUURLDBDRRBBUBBDDDDF'
p777
aS'BUULUDUDLFBRFLFDDLRRUUFDLLRUBBRRBLRDFRDFBLFFDRLBUDBBUF'
p778
aS'RRFDUBLRBDRRFLBUDBRLUUFFFLUDUBBRFULRDDLUBUDBFBLFFDRLDL'
p779
aS'BFFBUFLUFBDDLLDRBUFDRUFRLDUDRBRRRFBULLRUBLLURDFUBDLDFB'
p780
aS'UDFBUDULFDLRDLFLDLBBFBFULRRFUBBRFDURDUBLBRUFBRRUFDRLLD'
p781
aS'BBBLUBURUFDULLDFRUDDRRFURLLBFFURFBBFLFDLBFRULRDLUDBDRD'
p782
aS'FRBFUFRRRDUULLURBLURDLFRBLUDBFDRDUBFLBLUBUDDFBFBLDDLFR'
p783
aS'LRRFUDDFUFUURLBRDBBRDBFRFBRDUFBRDBLLBFRLBLFFUUUDUDDLLL'
p784
aS'FRRDUDDUBFDUBLBRFDFLRFFRDRLLFBLRLRULBLUBBUURBLUUFDDDBF'
p785
aS'DRULUDLDLFDBULDRBLDRBFFBLUFBBUFRLDUDRBRFBFFRRULFUDRBLU'
p786
aS'BDFFUFDUDLDURLLFBLDRUUFLRULULBLRFFBBRFFRBURDRUDLBDRDBB'
p787
aS'BLBBUDDBDBRUDLFUDURRRLFDBUFLFLRRLLBRLBRLBRFUUDFFUDUFFD'
p788
aS'BUFUUBLUDBDLRLLDDRBLDFFBFRUUUBRRFFDFUBULBFLFRRBLRDLDDR'
p789
aS'URFDURRBRLDRFLUFBLDRFFFBULDRUBFRUUFBDLBDBLUDLDULBDLBRF'
p790
aS'LRBUUDRFLDRUDLUFDFDLUBFFDLBFUUBRRRFBLDBFBUDLFRBLBDLURR'
p791
aS'UDLDURLLRLBFLLFFLRLBBLFBDUUFBBURDFRDDRBDBRBUUDFUFDURFR'
p792
aS'FLRUUBLDUBBBFLFBULRRDBFFULFRUUDRLFRBDRDDBBLDRLRUUDLDFF'
p793
aS'DLDLUUUDLURFDLFBLFLBLBFDBRLDUFURFRFURFRBBBBUFBRDDDRULR'
p794
aS'LFRFURRDDBUFRLRULDLBFUFDDFBBUUDRBLLRUBRUBRFFUDDBBDLFLL'
p795
aS'RLBLUFFRUULDBLBLUFUBDUFDBBRLDUDRUFLRRUBDBFBFDLRFRDFLRD'
p796
aS'UBULUBBULDFFULLRRFBBRDFDLDLFFUBRRRFBLRRDBFDUUFLDLDRBUD'
p797
aS'UUUDUFBLFDDFDLLDURBRBFFBFFRRLDBRDUBRLRFUBBURLLFLUDRBLD'
p798
aS'LDLDURBFRRLBULRURFBFUUFBDBRBLDURDDLFUFUBBUDDLFRRFDLFBL'
p799
aS'BDLBUFLLDBUUFLBDDDRFLRFRBLDUBFDRURLRFFURBBFDFRLBUDUURL'
p800
aS'LLBLUBLRLRDDULBRLDFUFRFFLRFDDUFRFUDURLFUBRBBBDFUUDBRDB'
p801
aS'ULFLUULUDBBURLDBDBDRLBFFDFDBDFFRFLURRLULBUFRURBRBDDFRL'
p802
aS'DBBLUBRBFFDLFLUDDRLRFUFFRBDULBFRDLUUDLRRBLLFBUDFUDRURB'
p803
aS'BUFFURDULRDULLBDUDLLLFFRRBBDDRRRFUDURLBUBRBFFUBFBDLLDF'
p804
aS'RURLUDBBLLLDULRDDURRFRFFUFLBUUFRLUBDFDBFBUFDFDBBLDBLRR'
p805
aS'DBRFURFBLFUULLRFUBULRRFDFFDDLRRRDLUUBFUUBLBBDLDRBDFBDL'
p806
aS'DBUDUFFLBDFFULLBDFUBLBFRRLDFURURDDFULDLUBRRLRBRLFDRBBU'
p807
aS'LBBBUFRBUFULULDUDDFLFDFLUUDLRBRRRDURDLRRBLBFFUBLFDFRDB'
p808
aS'ULFDUUURFBFULLDFUBDFLBFBDLRFBBDRUBDURLDBBRLRDLULFDRRFR'
p809
aS'DRURUFBLDUBLFLURUFDFLDFDRLUFBRBRURRLBDLDBRBFBFLFBDLDUU'
p810
aS'UUDRULRDLBBRFLFUBRLRBDFDDFUFRFBRFLUDBUDUBDFRULLBBDLFLR'
p811
aS'FFLFUBUBLUBUULRBDLURDRFDDLRRUBFRDDDBFLFRBFDLFRBLUDURLB'
p812
aS'RBUUULRUBFRRDLRBRFUFDDFBDLBRBUFRLLUDFDLDBFLRUDBLUDFFLB'
p813
aS'BDFUULFLUDFDULBFDLLFUFFLBUDRBRBRDRUFLLLBBRRRBBFUDDRDRU'
p814
aS'BRUUURBDUBBBRLUFLLDUUBFBFLDLDLBRFDFFRLRDBFRLFDFLUDRRDU'
p815
aS'DLURUFRFRFLFFLUURLBUBRFBUDFRLDFRDUUDLBLUBDBBLDRRBDDBLF'
p816
aS'BBURURDFUFFLFLDLUDFLLBFUULRFDFRRURLRBRRDBBBFBUDDUDLDBL'
p817
aS'FBFRULDUFUDRULRRRLBDDBFFRDLUFBURLUDRDBBBBLULFLRDFDULFB'
p818
aS'FLFUUDUFLFLRULDBBLDRDFFBURLBDFFRDBUBDBRBBLDRUUFRUDRLLR'
p819
aS'FLFFULDUBULRDLFLDRDBUBFRLDBFLRDRRURLDULBBUUBBFRBFDURFD'
p820
aS'FURBUFUFLDBDULBDFRLDUUFLURRLDBLRRLLBFDBUBRDDURRFBDLFFB'
p821
aS'LURUUBDFBUBFDLRUFBFDDRFFFLBRURLRRFLLUURLBRUFDBBLBDDLDD'
p822
aS'UBFLUUDURDUDRLLLDBURLBFDBFBRRRFRBRFFLLLFBRDLFBUFBDDUDU'
p823
aS'UBRFUUBDLLRFRLLRRBBULBFLLBUDRRDRBDDDUFFFBLFLFUDDUDURFB'
p824
aS'FLLBULUDRFUBULFFLDDDRFFRBRLLDFRRBBLBUFRBBUUUDURLBDDRFD'
p825
aS'DLDRUFFBURFBULDDFBFDRRFBUULFLDLRDBURLLURBRBFUFBRUDDLBL'
p826
aS'RLUFULLDULRBRLUBRDUUBFFDDRDFDFLRBLUFRFBDBFRBUDBLUDLFBR'
p827
aS'LBDBUFBFUFDRULLRBBDUDBFRLDLURUFRRLLRBFRUBLBDFURFUDDDLF'
p828
aS'DFFBUBDFDLBLULRURRBDFFFLRLFFFLRRULUBUDUUBDRRDBLRLDDBBU'
p829
aS'RFFDUFBLRFLURLUFUBLLUDFBDRLBBUURBFRDRFDDBDBFDRUULDRLBL'
p830
aS'FUUDUULBDDUBLLBDFULDLRFLDDUBBBLRRUFBRFRRBLRRRFFFUDDFBL'
p831
aS'DFBDUBFRDFDLULUBLBUBRDFRRRDUFRDRBRLFDLUUBLLUFLRLFDBUFB'
p832
aS'FUULULFRBDDRLLBRDUUFLDFDLUDDFRFRBDBLFRBUBRULLRFBUDBFRB'
p833
aS'LLDUUURLRFBBDLFURUBDBRFBBUFDLDURBLDULRUFBBFFFLLRDDFDRR'
p834
aS'RFLLUBBFBDLULLRRLBDDURFFUULRFURRDBDRFUFDBBDRLLBFUDBDUF'
p835
aS'RRBDULFBURFDDLUBUULLFDFRLDLUFDFRLLBRRRFFBUBRBDBDBDLUUF'
p836
aS'LFURUBLLDDBBRLUFRULFBDFUFRDUDFBRDDLBRULLBFRUFBBULDFRDR'
p837
aS'URBBURUFDFRRRLDDBFBLRFFDLFBULLURUDLRUFLUBBFDRDBLUDDBLF'
p838
aS'DLBLUBDLUURDULULRLUDBDFBRBFDRLRRFRUBRUFDBDLFURBFFDLBFF'
p839
aS'BBFDUUBRFDLRLLRLFRBRDLFFUUUFRRFRDRDLDULFBBDBFBBUUDDULL'
p840
aS'URLLUUBLBLLBDLBBRFLFRUFDFURDFDDRBRBUUFFRBBRUDUFDDDLFRL'
p841
aS'BLDRUDDRDUULLLDLBLULUBFFDFLFUBURBBDBFLFRBRRFRRFFUDDUBR'
p842
aS'LLUDUDFLFBBRULBRUUBBBRFLUULBRDRRURFUFDDRBLLDDLFDFDFFBR'
p843
aS'UBBDUBRURBFLULRLFFUDRFFLUDFLRDDRLFUBDRRLBUUBDDRFFDLLBB'
p844
aS'RFRDURUBLFLFULLDBFRDDRFLBDLRFFBRUBBUUULDBFBLLDFBRDUDRU'
p845
aS'BRLLUDLUFURBULUBLULDRFFBLUFFBUFRFRDDUBFFBRRBBRLDDDLDRD'
p846
aS'BRRLURBDULDDLLUFBLLUURFFDLRLBDLRBFDRFFBBBFBRUDUUUDFRDF'
p847
aS'RRBUUBFLULRLBLDFLBRDUUFFBFRDRUBRULLBDUFRBFLFFULDDDBDDR'
p848
aS'RUUFURDDFBFFBLBUBBRRUBFRFUBRLRLRFBULLULDBLDRLUDFDDLDFD'
p849
aS'FUUFUBLUUDFLDLBLRRUBUUFLDLDFDFDRFDFRBRBLBUBDBRBFLDRLRR'
p850
aS'FDFFULRDBDBLBLFFDLURDLFURUDURBLRBBFLUURDBFURLFRRLDUDBB'
p851
aS'UDDRUFFLBRRLLLBURRLUBBFDDBUFLLFRUBFDFBUUBRLDDFDBFDURLR'
p852
aS'DFFBUUFRLUUULLDRRLDFBBFLBULDBDRRDLDFRLRRBFULBBFFUDDUBR'
p853
aS'LDFRURLLDRDRDLRBFFRUUFFFRUBFBDURUUBFDLDBBBLLLBFUDDLBRU'
p854
aS'ULFRURUDLFFDDLUULLBBFUFUFRBUBLLRLRDBLDDFBUDBBRRRBDFDFR'
p855
aS'RLDDUFRRFLRFBLBFUBLLULFBRBDFRBURUDLLRFUDBDDFBBUURDDLFU'
p856
aS'BUDRUDLLFDDRDLRURLBFUUFDLUFDLULRBDFRBBRLBBUULFFRRDBFFB'
p857
aS'FDBFUDFUDDUDBLRUBDRRRBFRBLUUFLLRLRUFRFLFBDLRUBUFBDLBDL'
p858
aS'BBDUUDRDLFFLFLULUUUFRDFRUBDLRBLRFDLBFRRBBUDBFULFLDRRDB'
p859
aS'UBLLUFULLULFRLRFDBRRLDFUUFRFDBURBRFBDFFRBBDUBRUDDDLDBL'
p860
aS'RRRUUFLLFUBFLLURDDDRBLFFLDDDBFBRFURUULBDBBLFBLUFRDDRUB'
p861
aS'BBFRUDBDFRUDFLDRRUFFRLFBFLDLULURFUFDLBDRBLRULBLUBDDBRU'
p862
aS'BDFFURURDRDUBLFLDLDRULFLRRLDFFDRBLBBRLBUBURUFULBFDUDBF'
p863
aS'BULDURDLFRFFDLBBDLRLUFFFBRBLBRLRUFUUDLUDBRLFRFBUUDRDBD'
p864
aS'RBFBULBUBLDLRLUUFULRFLFRRBUDLRURRRBDUFDUBFLDBFDBLDDDFF'
p865
aS'FURFUURDRULDBLRBFLUUDDFRRFUBLFURRBDBFBLLBLUBLFRLDDFDBD'
p866
aS'DFRFUBUFDUDULLRRUFDLLLFDBLLUFFRRUBBLBRFRBUBDDRDFBDBRUL'
p867
aS'RRBUULLDFBLRDLDLBUURFLFFDUURLBRRBDBLUFDDBRDUFLFFFDBRUB'
p868
aS'UDUUUBRBDUDBLLBLFBFLLRFFBUFLRDDRURLBRRLLBRRDFFUDBDFUFD'
p869
aS'RBLFUFLUFLRDFLUDUBFRULFRFRUUBBDRFBLUBDDDBLLUDFLRDDBRBR'
p870
aS'FUDLUBUFLLFFLLFURLRUDBFDLLRUUBRRLRFBRRUDBRDDBBBFBDUDDF'
p871
aS'UDFBULRLRLRURLFDUBBLLFFLBRDRBBURDDDFRUFFBUDBLUDLBDRFFU'
p872
aS'RLRLUURUDLRBLLDFUFUFDBFBLDBDRULRRFBFDFUBBFLDLBFRDDRUUB'
p873
aS'DLDDURLFUBLRBLUDFRLUFUFFFBUUUBLRRBBLBFUBBDFDLRLFRDRDDR'
p874
aS'LLFBURRUFLBRFLDLFDBDFRFUBFURUFLRLDFUDDBBBRLLRDRUDDUBBU'
p875
aS'BLFBUFFRLLDUDLDBURUFDBFUULDBURFRDDUFRBBRBLURLDFLBDRFLR'
p876
aS'DBLUUFRBLFLBFLLURLBFBRFLFFDULBURURBDUDUDBBFDDLURRDDFRR'
p877
aS'FFBDUUBBLLDDDLLUULRLDDFBBBULLRRRRRBFRRUFBRUUDBFFUDLFFD'
p878
aS'LUBUULBUUDDDLLLBLULDBRFFLBUFURRRRFRLRFRBBDFFUFFDBDDRBD'
p879
aS'BRBDUULFUDLRRLDDRRFUDLFBUFBFDDRRLUUBUBFBBULFRLBRLDDFFL'
p880
aS'FBULUDUFRBUBFLLDLDLURDFFLRFUBRBRRLLDRRLBBFBDDUUFDDRBUF'
p881
aS'ULRUULLRFLFDBLBBRRDFBFFRLRUDBBURDUFLFUFDBBDLRUURDDDFLB'
p882
aS'BBDLUFUFRUDRULRBDDRRLBFFUUFFRRURRLDFBLBUBFDBFLBUDDLDLL'
p883
aS'LBRRUDFUUBUURLRFBDLDFUFDUDDLLRURBBFFBLDFBBRLDLFULDRRFB'
p884
aS'DLLBULRFUDBURLDBURDFFRFDFUBULUFRDDRBFRFBBULUBLFRBDDLLR'
p885
aS'DDRBUUBRUUDDULLBFFDRLLFUUFUFLRRRDDBFFFBRBURDBLLRFDBLBL'
p886
aS'FULDURUBLUFBULLBLRDBUBFLRFLDDFURRFFBULRDBFDUDBRRRDDLBF'
p887
aS'LFUFURDLDDDBRLUFBFDUUDFLRRLFFBDRUULBRFRUBDRBLFBLRDLBBU'
p888
aS'RUFUURLLDBFDLLBLRUDBFRFFBFFUDULRFFBBLRUDBLRDRRBBUDUDDL'
p889
aS'BUDFUDFBUDFLULLRDUBRRLFRRLUFFLBRRFDBFULBBLLFRBRDDDBDUU'
p890
aS'DFFDUBFLBFDDULRLUBDRRRFFDLRFFUBRBRULLLUUBDULULFBRDBBDR'
p891
aS'ULBBUDLURUDUFLBRDLFRFBFULFDDRFURLFLDLBRFBLBFRBUUDDRDRB'
p892
aS'LLBFUFBURRDRBLDBBDLLFUFUULRFFDDRLURFUBURBBDDLFRDUDRBFL'
p893
aS'BBFRUBDLLFDLBLLUULBFUUFBUFFRRLLRDBUBUFDDBDDRDRURRDLRFF'
p894
aS'UUBRULFULUBRBLFRBLDLFLFDDRLRFDBRRRFBUUBUBFDDFLDFLDDURB'
p895
aS'UBLDURULDRUDLLRFFBLRLUFFRRRBDBDRFDFRBBUUBDFULFBUBDLFLD'
p896
aS'RLLUUULFRDDFDLFFDULRFUFBFBBRRDDRRULBDBBRBLUULRLUBDFBFD'
p897
aS'BBBUUDFFFRLRBLDUDLFRUUFFRRLBUDURRBLRUDFFBRUFLDLLBDLDBD'
p898
aS'DUFRURRLFBDLFLBDFRLLFBFFURDLBBLRUURRUFDUBLUDBLUFBDDRDB'
p899
aS'BURRURFDBFLFLLBLFUBLRBFUDBULRLURRBDRUBDFBUDFLRDULDDDFF'
p900
aS'RRDRURDDUUFRFLDFDFLLDUFBUDLBFBBRBFFBBUFUBBLRDRLULDLLUR'
p901
aS'DFUBUUBDLDDFLLRDBRBLFBFDFUUUBRLRRLFULFBRBLBUFRFLDDRDUR'
p902
aS'UDDBUDDRURLLDLRBFLDUFUFDUBLRLBBRBFLBFUBFBRLFRULRFDRDUF'
p903
aS'LLFRURUFLDDDBLFUDFLLURFFBFFRURLRDFRBLBBDBUDBRRUBLDUDBU'
p904
aS'DDUUUDLRLDFFDLLLDRDFFUFFULDRUFFRUBLULRBBBBBBRRRBRDBULF'
p905
aS'FFFRUBDBRBLLRLRBDDRFRUFBDUFBFLLRUBDUUURDBLFLUDDUFDRLBL'
p906
aS'FLDDULLFBUFFFLDUBRLDUUFRBRDLUFBRDRLRRULFBUDBUFRBLDBBRD'
p907
aS'RLFLUBFRDUBLRLFUFDLUBUFBBULLLDDRBUDRUURDBDFLRBFBFDRFRD'
p908
aS'RRDBUBLDBLLLULURLUDUFRFDBLFDBUDRFRFDFFUUBBLRUBFFRDDBLR'
p909
aS'FFRRUUBDBLUFLLLDDLFRDDFFBRLLBUDRLBUUULFFBURRDUBRBDFRBD'
p910
aS'RDULUFLFRBDFFLBBLFLUDRFBUUDBRFURLRDDLRLRBFBLFUUDDDBUBR'
p911
aS'FBDRULBURLLFBLDLFLUUDRFDBLLDBUDRRULURFBDBFFUBDUFRDBRFR'
p912
aS'BBRBUUFRLLFURLULDLFFULFLRRDBURDRBULFBRBFBLUDRDDDUDFFBD'
p913
aS'RUURUDDUFDDBLLFUFUFRFDFBULRLUFLRBBRLRFLRBFDUDBBLLDBRDB'
p914
aS'LDLDUFFFFDUDLLLLFUURBRFBFLLUBDURUBUDBRBDBBRBRRFFRDDULR'
p915
aS'FFLRULRDLFBFDLDDLDRDRUFFULBRFUURBLLBDRUBBBDUBLRBUDRUFF'
p916
aS'DDRBUFUUUUBFULBBFBLRRLFRRBLDLFLRFLURUUBDBRBRFLLDDDFDDF'
p917
aS'UFRFULLLBUDDDLRFULDFFUFDUUBLBDBRDULRFRFFBRDBBRBLUDLRRB'
p918
aS'ULLUUBBBDUFFULDBFFRRRFFRRLLDBUFRUBBLDLLRBRBDDFLUDDURDF'
p919
aS'UFFLURLUDBRDFLUFRRRDBUFBLDBULDFRLFLBLBLUBDRFUURDBDBRDF'
p920
aS'DRLBUFLDBRDDBLUURBBBRRFLRUFFFUFRLFULBBFDBDULDDURRDFLLU'
p921
aS'FRRLULUUBULBRLFDFRFDUBFDLULFFFFRRLBLDURBBUURDBDRBDDBLD'
p922
aS'DBBLUBDURFLRDLDLDLURBLFFRFRBRFURFLBUUULRBDFUBDFFLDBURD'
p923
aS'RBUUUULLFFLRULUBRDUBBFFRRLFUBURRDBDDFFLFBBRFLDLLDDRDDB'
p924
aS'BLDLUUFLUUBBULBLURBBDDFDFBRRDUFRFFRRLRLFBRBFDFLUUDRLDD'
p925
aS'LUBFUFBLBBBUDLFUUDRBFRFDRDRDBDURBLLULRDRBRRFULLFUDDFLF'
p926
aS'UUBDUFRDDLLDLLBBRRUUBUFRLLFDDDFRBRLFRFFDBRLUFUBLBDFURB'
p927
aS'FBFBUFDURULLBLLBLDLFRDFRRRFBDLLRFUFUUDBRBRFDBLUDUDBRUD'
p928
aS'LLUDURFBURRFRLDLLBFFDLFBFFRRUUFRLBUBLUDBBRLBRBFDDDUUDD'
p929
aS'FBUBUDBUBUFBDLRUFRLLUDFULFDFDLLRFRRRRRLLBLDUDFRBUDBFBD'
p930
aS'FUDLULRBBBDRDLRFULRFDFFBBBURUFRRRULLBBDFBDUUFLFDLDRLDU'
p931
aS'LBDFULUFLLFRDLDDLFFBUBFRUURRBBFRDDRUBLBUBLBULDRRDDRFUF'
p932
aS'FLBUUBURRRLLBLFBDLUFDFFRRBFBLRBRFFUBDDFDBRULLDULDDUURD'
p933
aS'URUDURURRDDLLLBDBLBUFLFFRUFBLRLRDFRBBBRFBFUUDFBLUDFLDD'
p934
aS'BRLFUBBDRRDUBLBLRLFFULFDFLDRFLRRRRFDFLBUBUBUFUDDLDBUUD'
p935
aS'BDRRUBUFDLFFRLBUBRBLDFFUBULULFURLFFFUUBRBLLRRDDRDDDDBL'
p936
aS'UDBDULDDDFUDBLRLFRURBFFLUBLLRBURBFFRRLLBBUFLUDUFFDDRRB'
p937
aS'UDRFURLFBBDDRLLULLBBFUFDFBUDUBFRLULRFRDBBBDURLURDDFFRL'
p938
aS'RLURURURDRRBULDBFDLDBUFDFBLULFURFBLFRBFUBDLFUDFDBDBLLR'
p939
aS'DDFUURLLUBLRFLBRFFFULFFRRBUBUBRRUDBLDDUBBDFLBRDURDLLFD'
p940
aS'FDUDUDRDBBLLRLBDUUFRLUFRDBUBLFBRLDURBFUFBBDFLRFRRDLFUL'
p941
aS'BURBUBDDLDLDFLFLDUBBRDFUFDFULLLRRDBFFFBRBUULBRRURDFLUR'
p942
aS'LBBDURFFRDUURLLRDFFLULFFLDDDBRLRULRBLBBBBRUFFRUUDDFDUB'
p943
aS'FDLFUUBBFFFUBLFBBDDRRDFUDFUBLRLRULDLFRRRBUDBBULRLDRUDL'
p944
aS'DUUFUBUBLULRBLBFUBDRRFFDBLBRDLRRLDFBFFLDBLDRFFRLUDURDU'
p945
aS'FDFLUDLFLUULULFBLDDBRFFDRRDFBFBRLUFBULBRBDDUBLRRBDRRUU'
p946
aS'DBBRULLUBULRFLDLFBDURLFDDLDFUFFRRFRLUBLDBUUBUFRBBDFRDR'
p947
aS'DBRLUUDDRLRFFLLBFFLDLBFDLURUBFRRRRDBUUUFBLUBBBLDUDRDFF'
p948
aS'RBLFUURBBBRUDLDRRDFFBLFDFLFDFDDRULBUFBDFBURLBLRURDUULL'
p949
aS'BLUDULDDBDDFBLUBBDRRLUFRFFBDURLRFFLLLBRBBRUFUFUUFDRRDL'
p950
aS'BRLDUBFUFUBFBLDLUUBRRLFFDLRBFULRFBRDDDLLBFRBDFUURDURDL'
p951
aS'LRDUURLLRRDBLLFFUFRRUDFFRDDFRFURBUUDLBBBBLBLLUDDFDFBBU'
p952
aS'LLBRUUDRBUBDLLFUFUFUBBFBDDFFRLLRFBFURUFRBURDLRDLLDDDBR'
p953
aS'LUDDUFFBUDBBLLLRBDBLFDFLFURLFURRDURRLURRBDBBLFFDRDFBUU'
p954
aS'DDDDUFRBRLLLULLFULULBRFRBBFDRDLRULDBFFFRBBUFBUFRDDUUBR'
p955
aS'DRBFULBUFRFURLBLBBUDRRFDRFDDULLRBBLLLRUBBDDURFUFLDDUFF'
p956
aS'FBBLUURLUFRLDLRLFDBDRUFBRUBBLUFRDLLFDUUFBDRFFLRUBDBDRD'
p957
aS'UULDUDURFUBDULBBULDRFLFRBFFUDRDRFLLDBRRBBLRFFBFRBDUDLL'
p958
aS'RBBBURFUFFDUFLLRDFULDFFRRUUBLLRRFLULLBRFBUDBDUDBRDLBDD'
p959
aS'DRDRUBFLUDBBLLDUBBRLRUFFLUDULRRRDBRRLUFDBFBBULFFDDFLUF'
p960
aS'UBLUULUFLBLBULRLBFDDRDFLDULFRFRRLDDDUBUDBFFFRRBBUDRBFR'
p961
aS'DBFRULBLBLRUFLDRLFBBLFFURFUDURURUUFDRBUDBRLDFBLDDDRLBF'
p962
aS'UDBFURDFLBDDRLRDUBBBLDFDUURFFFBRLRUDRLUBBFFLFRULRDBULL'
p963
aS'ULLBULFLDLRDLLFRBBBRLUFDFDLURDBRURFRBUFBBRFDUUDDFDFBUR'
p964
aS'FFFLULBRLUFUBLUFULRRDFFUBRLDDUBRBUFBRLLDBUDDBFLDBDRRDR'
p965
aS'BFFUUBFRUDUDFLLRULDRUFFLDRUBBLLRDBBFLBBDBDRLRRRFFDUUDL'
p966
aS'LLLDULDBRBRDFLUFBURLBRFRUBFFRLDRUFBDBUUFBDBDURUDLDFRFL'
p967
aS'DUFFULBDRUDRBLLDULRRBDFRFBUDLRURFULUDRBDBFFFFLRBUDBLBL'
p968
aS'DDRDUURUURLBRLRFBFRRLFFLDRBBUUBRBUFBDFULBDLUFFFDBDDLLL'
p969
aS'RUFDUDFULLRRFLLRDDULBRFFULRFBURRBDUDDUUBBRFFBBLBDDFLBL'
p970
aS'BFDDUBRRRFULBLLDDLFFUFFLBUULFFBRDRLDFRUDBLBUULURBDRBRD'
p971
aS'LRDLULBRLUURBLDULBFBDUFFDRUFFRFRBLBDBLFDBUFDBRULFDRUDR'
p972
aS'RDBDUULRBDBRFLLDRFLFDUFFUUFLFUBRUFDDULBLBBLRURLFRDBRDB'
p973
aS'DDRBURLDLLUDRLLRBFBULLFRULFRBUFRBULUFFBDBFBFBDUDDDURRF'
p974
aS'RDBUURRLBFBUDLRFRDRBBFFBBDURLFLRBLFDLDLUBLLUUDFDUDRFFU'
p975
aS'LDRFUDDDUDRULLLLRDBFFUFLULLFBBURBFDFBBBFBRRRRRUUUDFDBL'
p976
aS'RUBBUFRUFRDUFLBDBURLFUFRLLFUDDRRLDDLLBBRBFDFBUUBLDRLDF'
p977
aS'UFLUUBLRRDUBBLLFFRURBLFRLRBFBDLRDFLDUFRUBDBULFDRFDBUDD'
p978
aS'DUDRULRFBDRLDLLUUBLRRBFFUUUFBFBRUDFUFBLDBDRLFBRBFDDRLL'
p979
aS'UBUDUDRBLLRBFLRDFBFLLDFLUFUFRFURLRDBRUDRBLDBBFURUDFDBL'
p980
aS'URULUBDBDFLLRLFRLFUDRDFUDBFBULBRDRFBBFULBRRUDLUBDDFFRL'
p981
aS'LLFUUULLFRLUDLDDFUBUBRFBFDFDRUFRBRDDRUDRBFRBUBFLLDBBRL'
p982
aS'URLFULRRLFDDRLDDBRLUBDFLFDDRFBBRUUFFBLRBBLUULUFFUDBBRD'
p983
aS'DRLLUBBBDFFBULULFRDLFDFUUFURRRDRRLDBUULLBDRBUDBBRDLFFF'
p984
aS'DLBRULLDULFDULBBRFLFLRFDFLFUFUDRLDDRRUUUBUBFFBRDBDBRBR'
p985
aS'FLLLUFFDLRLDDLFBRRUBUBFUDRLFUDURLUDFBBDRBFUBBBRLDDURFR'
p986
aS'LLUFUUBDDDBRFLBLRBUDDUFLUFULRRDRLDLFFRRBBRLURFDFUDFBBB'
p987
aS'RDBDURBBRBLRRLRLUFUBDDFBFDLDLUURRLLUUFRUBLFUDDFFBDFBFL'
p988
aS'FDLDUBUFUDUULLRRRRBUULFBBFBLLLURRFBRFFRRBDBLDFUDFDDLBD'
p989
aS'FFLBUFUBULLUBLURFDFRRUFULRRFUBLRRRDBFFBDBBLRBDLUDDLDDD'
p990
aS'FUBLUBBLRUDUULLRUDFBRDFFBLDDBLRRDFFBLFLDBRUUDFRUFDRLBR'
p991
aS'BRUBUDLLFFUFLLURULFFUBFLRDBUFDRRFRDDLBLLBRRBBDUUDDRDFB'
p992
aS'UFUBURBFDURLLLLDBLFDFDFUDUDLLLDRUBBBBUFFBLRRRRDRBDFURF'
p993
aS'LULBUDFDUDUDLLFBUDURFRFRULDBBRURRLLFBLBFBBRDURFLDDFFBR'
p994
aS'LDFLUDULFBDDRLFRUBUFDBFBFLLUUFBRFDDDLBLLBURRRUFBRDRBUR'
p995
aS'FLDBUFDRLUFRULUUDDFLRRFDBRFRDLFRFRBBBUBLBLDUFLRLBDBUDU'
p996
aS'FDBBURUBBLDDLLFDBDLRRUFURFBFRLFRDFLURLBDBLRFLDUFBDRUUU'
p997
aS'DLDRUDLRLUBRRLUDRFFFLFFBRLFUDUURUDBUBLFFBDBUBRDRBDLLFB'
p998
aS'UFDLUUFUDDLFDLRBRRUBBFFBLBRUDULRFLDFRUBRBULFDRRLBDLBDF'
p999
aS'UFDDUDLBBLLFBLDLLLFBFUFLFLUUFBURRUURRUBRBFDBBDDDRDRRFR'
p1000
a.